ARM GAS  C:\Users\CHIPVI~1\AppData\Local\Temp\ccjCx3Ca.s 			page 1


   1              		.cpu cortex-m7
   2              		.eabi_attribute 28, 1
   3              		.eabi_attribute 20, 1
   4              		.eabi_attribute 21, 1
   5              		.eabi_attribute 23, 3
   6              		.eabi_attribute 24, 1
   7              		.eabi_attribute 25, 1
   8              		.eabi_attribute 26, 1
   9              		.eabi_attribute 30, 2
  10              		.eabi_attribute 34, 1
  11              		.eabi_attribute 18, 4
  12              		.file	"spiral2.0.cpp"
  13              		.text
  14              	.Ltext0:
  15              		.cfi_sections	.debug_frame
  16              		.section	.text._ZN5daisy8DaisyPodD2Ev,"axG",%progbits,_ZN5daisy8DaisyPodD5Ev,comdat
  17              		.align	1
  18              		.p2align 2,,3
  19              		.weak	_ZN5daisy8DaisyPodD2Ev
  20              		.arch armv7e-m
  21              		.syntax unified
  22              		.thumb
  23              		.thumb_func
  24              		.fpu fpv5-d16
  26              	_ZN5daisy8DaisyPodD2Ev:
  27              	.LVL0:
  28              	.LFB2564:
  29              		.file 1 "../../libDaisy/src/daisy_pod.h"
   1:../../libDaisy/src/daisy_pod.h **** #pragma once
   2:../../libDaisy/src/daisy_pod.h **** #ifndef DSY_POD_BSP_H
   3:../../libDaisy/src/daisy_pod.h **** #define DSY_POD_BSP_H
   4:../../libDaisy/src/daisy_pod.h **** 
   5:../../libDaisy/src/daisy_pod.h **** #include "daisy_seed.h"
   6:../../libDaisy/src/daisy_pod.h **** 
   7:../../libDaisy/src/daisy_pod.h **** namespace daisy
   8:../../libDaisy/src/daisy_pod.h **** {
   9:../../libDaisy/src/daisy_pod.h **** /**
  10:../../libDaisy/src/daisy_pod.h ****     @brief Class that handles initializing all of the hardware specific to the Daisy Patch Board. \
  11:../../libDaisy/src/daisy_pod.h ****     Helper funtions are also in place to provide easy access to built-in controls and peripherals.
  12:../../libDaisy/src/daisy_pod.h ****     @author Stephen Hensley
  13:../../libDaisy/src/daisy_pod.h ****     @date November 2019
  14:../../libDaisy/src/daisy_pod.h ****     @ingroup boards
  15:../../libDaisy/src/daisy_pod.h **** */
  16:../../libDaisy/src/daisy_pod.h **** class DaisyPod
  17:../../libDaisy/src/daisy_pod.h **** {
  18:../../libDaisy/src/daisy_pod.h ****   public:
  19:../../libDaisy/src/daisy_pod.h ****     /** Switches */
  20:../../libDaisy/src/daisy_pod.h ****     enum Sw
  21:../../libDaisy/src/daisy_pod.h ****     {
  22:../../libDaisy/src/daisy_pod.h ****         BUTTON_1,    /** & */
  23:../../libDaisy/src/daisy_pod.h ****         BUTTON_2,    /** & */
  24:../../libDaisy/src/daisy_pod.h ****         BUTTON_LAST, /** &  */
  25:../../libDaisy/src/daisy_pod.h ****     };
  26:../../libDaisy/src/daisy_pod.h **** 
  27:../../libDaisy/src/daisy_pod.h ****     /** Knobs */
  28:../../libDaisy/src/daisy_pod.h ****     enum Knob
  29:../../libDaisy/src/daisy_pod.h ****     {
ARM GAS  C:\Users\CHIPVI~1\AppData\Local\Temp\ccjCx3Ca.s 			page 2


  30:../../libDaisy/src/daisy_pod.h ****         KNOB_1,    /** &  */
  31:../../libDaisy/src/daisy_pod.h ****         KNOB_2,    /** & */
  32:../../libDaisy/src/daisy_pod.h ****         KNOB_LAST, /** & */
  33:../../libDaisy/src/daisy_pod.h ****     };
  34:../../libDaisy/src/daisy_pod.h **** 
  35:../../libDaisy/src/daisy_pod.h ****     DaisyPod() {}
  36:../../libDaisy/src/daisy_pod.h ****     ~DaisyPod() {}
  30              		.loc 1 36 5 view -0
  31              		.cfi_startproc
  32              		@ args = 0, pretend = 0, frame = 0
  33              		@ frame_needed = 0, uses_anonymous_args = 0
  34              		@ link register save eliminated.
  35              	.LBB397:
  36              	.LBI397:
  37              		.file 2 "../../libDaisy/src/hid/midi.h"
   1:../../libDaisy/src/hid/midi.h **** #pragma once
   2:../../libDaisy/src/hid/midi.h **** #ifndef DSY_MIDI_H
   3:../../libDaisy/src/hid/midi.h **** #define DSY_MIDI_H
   4:../../libDaisy/src/hid/midi.h **** 
   5:../../libDaisy/src/hid/midi.h **** #include <stdint.h>
   6:../../libDaisy/src/hid/midi.h **** #include <stdlib.h>
   7:../../libDaisy/src/hid/midi.h **** #include <algorithm>
   8:../../libDaisy/src/hid/midi.h **** #include "per/uart.h"
   9:../../libDaisy/src/hid/midi.h **** #include "util/ringbuffer.h"
  10:../../libDaisy/src/hid/midi.h **** #include "util/FIFO.h"
  11:../../libDaisy/src/hid/midi.h **** #include "hid/midi_parser.h"
  12:../../libDaisy/src/hid/midi.h **** #include "hid/usb_midi.h"
  13:../../libDaisy/src/hid/midi.h **** #include "sys/dma.h"
  14:../../libDaisy/src/hid/midi.h **** #include "sys/system.h"
  15:../../libDaisy/src/hid/midi.h **** 
  16:../../libDaisy/src/hid/midi.h **** namespace daisy
  17:../../libDaisy/src/hid/midi.h **** {
  18:../../libDaisy/src/hid/midi.h **** /** @brief   Transport layer for sending and receiving MIDI data over UART
  19:../../libDaisy/src/hid/midi.h ****  *  @details This is the mode of communication used for TRS and DIN MIDI
  20:../../libDaisy/src/hid/midi.h ****  *           There is an additional 2kB of RAM data used within this class
  21:../../libDaisy/src/hid/midi.h ****  *           for processing bulk data from the UART peripheral
  22:../../libDaisy/src/hid/midi.h ****  *  @ingroup midi
  23:../../libDaisy/src/hid/midi.h **** */
  24:../../libDaisy/src/hid/midi.h **** class MidiUartTransport
  25:../../libDaisy/src/hid/midi.h **** {
  26:../../libDaisy/src/hid/midi.h ****   public:
  27:../../libDaisy/src/hid/midi.h ****     typedef void (*MidiRxParseCallback)(uint8_t* data,
  28:../../libDaisy/src/hid/midi.h ****                                         size_t   size,
  29:../../libDaisy/src/hid/midi.h ****                                         void*    context);
  30:../../libDaisy/src/hid/midi.h **** 
  31:../../libDaisy/src/hid/midi.h ****     MidiUartTransport() {}
  32:../../libDaisy/src/hid/midi.h ****     ~MidiUartTransport() {}
  33:../../libDaisy/src/hid/midi.h **** 
  34:../../libDaisy/src/hid/midi.h ****     /** @brief Configuration structure for UART MIDI */
  35:../../libDaisy/src/hid/midi.h ****     struct Config
  36:../../libDaisy/src/hid/midi.h ****     {
  37:../../libDaisy/src/hid/midi.h ****         UartHandler::Config::Peripheral periph;
  38:../../libDaisy/src/hid/midi.h ****         dsy_gpio_pin                    rx;
  39:../../libDaisy/src/hid/midi.h ****         dsy_gpio_pin                    tx;
  40:../../libDaisy/src/hid/midi.h **** 
  41:../../libDaisy/src/hid/midi.h ****         /** Pointer to buffer for DMA UART rx byte transfer in background.
  42:../../libDaisy/src/hid/midi.h ****          *
ARM GAS  C:\Users\CHIPVI~1\AppData\Local\Temp\ccjCx3Ca.s 			page 3


  43:../../libDaisy/src/hid/midi.h ****          *  @details By default this uses a shared buffer in DMA_BUFFER_MEM_SECTION,
  44:../../libDaisy/src/hid/midi.h ****          *           which can only be utilized for a single UART peripheral. To
  45:../../libDaisy/src/hid/midi.h ****          *           use MIDI with multiple UART peripherals, you must provide your own
  46:../../libDaisy/src/hid/midi.h ****          *           buffer, allocated to a DMA-capable memory section.
  47:../../libDaisy/src/hid/midi.h ****          */
  48:../../libDaisy/src/hid/midi.h ****         uint8_t* rx_buffer;
  49:../../libDaisy/src/hid/midi.h **** 
  50:../../libDaisy/src/hid/midi.h ****         /** Size in bytes of rx_buffer.
  51:../../libDaisy/src/hid/midi.h ****          *
  52:../../libDaisy/src/hid/midi.h ****          *  @details This size determines the maximum Rx bytes readable by the UART in the backgrou
  53:../../libDaisy/src/hid/midi.h ****          *           By default it's set to the size of the default shared rx_buffer (256 bytes).
  54:../../libDaisy/src/hid/midi.h ****          *           While much smaller sizes can be used, data can get missed if the buffer is too
  55:../../libDaisy/src/hid/midi.h ****          */
  56:../../libDaisy/src/hid/midi.h ****         size_t rx_buffer_size;
  57:../../libDaisy/src/hid/midi.h **** 
  58:../../libDaisy/src/hid/midi.h ****         Config();
  59:../../libDaisy/src/hid/midi.h ****     };
  60:../../libDaisy/src/hid/midi.h **** 
  61:../../libDaisy/src/hid/midi.h ****     /** @brief Initialization of UART using config struct */
  62:../../libDaisy/src/hid/midi.h ****     inline void Init(Config config)
  63:../../libDaisy/src/hid/midi.h ****     {
  64:../../libDaisy/src/hid/midi.h ****         UartHandler::Config uart_config;
  65:../../libDaisy/src/hid/midi.h **** 
  66:../../libDaisy/src/hid/midi.h ****         //defaults
  67:../../libDaisy/src/hid/midi.h ****         uart_config.baudrate   = 31250;
  68:../../libDaisy/src/hid/midi.h ****         uart_config.stopbits   = UartHandler::Config::StopBits::BITS_1;
  69:../../libDaisy/src/hid/midi.h ****         uart_config.parity     = UartHandler::Config::Parity::NONE;
  70:../../libDaisy/src/hid/midi.h ****         uart_config.mode       = UartHandler::Config::Mode::TX_RX;
  71:../../libDaisy/src/hid/midi.h ****         uart_config.wordlength = UartHandler::Config::WordLength::BITS_8;
  72:../../libDaisy/src/hid/midi.h **** 
  73:../../libDaisy/src/hid/midi.h ****         //user settings
  74:../../libDaisy/src/hid/midi.h ****         uart_config.periph        = config.periph;
  75:../../libDaisy/src/hid/midi.h ****         uart_config.pin_config.rx = config.rx;
  76:../../libDaisy/src/hid/midi.h ****         uart_config.pin_config.tx = config.tx;
  77:../../libDaisy/src/hid/midi.h **** 
  78:../../libDaisy/src/hid/midi.h ****         rx_buffer      = config.rx_buffer;
  79:../../libDaisy/src/hid/midi.h ****         rx_buffer_size = config.rx_buffer_size;
  80:../../libDaisy/src/hid/midi.h **** 
  81:../../libDaisy/src/hid/midi.h ****         /** zero the buffer to ensure emptiness regardless of source memory */
  82:../../libDaisy/src/hid/midi.h ****         std::fill(rx_buffer, rx_buffer + rx_buffer_size, 0);
  83:../../libDaisy/src/hid/midi.h **** 
  84:../../libDaisy/src/hid/midi.h ****         uart_.Init(uart_config);
  85:../../libDaisy/src/hid/midi.h ****     }
  86:../../libDaisy/src/hid/midi.h **** 
  87:../../libDaisy/src/hid/midi.h ****     /** @brief Start the UART peripheral in listening mode.
  88:../../libDaisy/src/hid/midi.h ****      *  This will fill an internal data structure in the background */
  89:../../libDaisy/src/hid/midi.h ****     inline void StartRx(MidiRxParseCallback parse_callback, void* context)
  90:../../libDaisy/src/hid/midi.h ****     {
  91:../../libDaisy/src/hid/midi.h ****         parse_context_  = context;
  92:../../libDaisy/src/hid/midi.h ****         parse_callback_ = parse_callback;
  93:../../libDaisy/src/hid/midi.h ****         dsy_dma_clear_cache_for_buffer((uint8_t*)this,
  94:../../libDaisy/src/hid/midi.h ****                                        sizeof(MidiUartTransport));
  95:../../libDaisy/src/hid/midi.h ****         uart_.DmaListenStart(
  96:../../libDaisy/src/hid/midi.h ****             rx_buffer, rx_buffer_size, MidiUartTransport::rxCallback, this);
  97:../../libDaisy/src/hid/midi.h ****     }
  98:../../libDaisy/src/hid/midi.h **** 
  99:../../libDaisy/src/hid/midi.h ****     /** @brief returns whether the UART peripheral is actively listening in the background or not *
ARM GAS  C:\Users\CHIPVI~1\AppData\Local\Temp\ccjCx3Ca.s 			page 4


 100:../../libDaisy/src/hid/midi.h ****     inline bool RxActive() { return uart_.IsListening(); }
 101:../../libDaisy/src/hid/midi.h **** 
 102:../../libDaisy/src/hid/midi.h ****     /** @brief This is a no-op for UART transport - Rx is via DMA callback with circular buffer */
 103:../../libDaisy/src/hid/midi.h ****     inline void FlushRx() {}
 104:../../libDaisy/src/hid/midi.h **** 
 105:../../libDaisy/src/hid/midi.h ****     /** @brief sends the buffer of bytes out of the UART peripheral */
 106:../../libDaisy/src/hid/midi.h ****     inline void Tx(uint8_t* buff, size_t size) { uart_.PollTx(buff, size); }
 107:../../libDaisy/src/hid/midi.h **** 
 108:../../libDaisy/src/hid/midi.h ****   private:
 109:../../libDaisy/src/hid/midi.h ****     UartHandler         uart_;
 110:../../libDaisy/src/hid/midi.h ****     uint8_t*            rx_buffer;
 111:../../libDaisy/src/hid/midi.h ****     size_t              rx_buffer_size;
 112:../../libDaisy/src/hid/midi.h ****     void*               parse_context_;
 113:../../libDaisy/src/hid/midi.h ****     MidiRxParseCallback parse_callback_;
 114:../../libDaisy/src/hid/midi.h **** 
 115:../../libDaisy/src/hid/midi.h ****     /** Static callback for Uart MIDI that occurs when
 116:../../libDaisy/src/hid/midi.h ****          *  new data is available from the peripheral.
 117:../../libDaisy/src/hid/midi.h ****          *  The new data is transferred from the peripheral to the
 118:../../libDaisy/src/hid/midi.h ****          *  MIDI instance's byte FIFO that feeds the MIDI parser.
 119:../../libDaisy/src/hid/midi.h ****          *
 120:../../libDaisy/src/hid/midi.h ****          *  TODO: Handle UartHandler errors better/at all.
 121:../../libDaisy/src/hid/midi.h ****          *  (If there is a UART error, there's not really any recovery
 122:../../libDaisy/src/hid/midi.h ****          *  option at the moment)
 123:../../libDaisy/src/hid/midi.h ****          */
 124:../../libDaisy/src/hid/midi.h ****     static void rxCallback(uint8_t*            data,
 125:../../libDaisy/src/hid/midi.h ****                            size_t              size,
 126:../../libDaisy/src/hid/midi.h ****                            void*               context,
 127:../../libDaisy/src/hid/midi.h ****                            UartHandler::Result res)
 128:../../libDaisy/src/hid/midi.h ****     {
 129:../../libDaisy/src/hid/midi.h ****         /** Read context as transport type */
 130:../../libDaisy/src/hid/midi.h ****         MidiUartTransport* transport
 131:../../libDaisy/src/hid/midi.h ****             = reinterpret_cast<MidiUartTransport*>(context);
 132:../../libDaisy/src/hid/midi.h ****         if(res == UartHandler::Result::OK)
 133:../../libDaisy/src/hid/midi.h ****         {
 134:../../libDaisy/src/hid/midi.h ****             if(transport->parse_callback_)
 135:../../libDaisy/src/hid/midi.h ****             {
 136:../../libDaisy/src/hid/midi.h ****                 transport->parse_callback_(
 137:../../libDaisy/src/hid/midi.h ****                     data, size, transport->parse_context_);
 138:../../libDaisy/src/hid/midi.h ****             }
 139:../../libDaisy/src/hid/midi.h ****         }
 140:../../libDaisy/src/hid/midi.h ****     }
 141:../../libDaisy/src/hid/midi.h **** };
 142:../../libDaisy/src/hid/midi.h **** 
 143:../../libDaisy/src/hid/midi.h **** /**
 144:../../libDaisy/src/hid/midi.h ****     @brief Simple MIDI Handler \n
 145:../../libDaisy/src/hid/midi.h ****     Parses bytes from an input into valid MidiEvents. \n
 146:../../libDaisy/src/hid/midi.h ****     The MidiEvents fill a FIFO queue that the user can pop messages from.
 147:../../libDaisy/src/hid/midi.h ****     @author shensley
 148:../../libDaisy/src/hid/midi.h ****     @date March 2020
 149:../../libDaisy/src/hid/midi.h ****     @ingroup midi
 150:../../libDaisy/src/hid/midi.h **** */
 151:../../libDaisy/src/hid/midi.h **** template <typename Transport>
 152:../../libDaisy/src/hid/midi.h **** class MidiHandler
 153:../../libDaisy/src/hid/midi.h **** {
 154:../../libDaisy/src/hid/midi.h ****   public:
 155:../../libDaisy/src/hid/midi.h ****     MidiHandler() {}
 156:../../libDaisy/src/hid/midi.h ****     ~MidiHandler() {}
ARM GAS  C:\Users\CHIPVI~1\AppData\Local\Temp\ccjCx3Ca.s 			page 5


  38              		.loc 2 156 5 view .LVU1
  39              	.LBB398:
  40              	.LBI398:
  41              		.file 3 "../../libDaisy/src/util/FIFO.h"
   1:../../libDaisy/src/util/FIFO.h **** #pragma once
   2:../../libDaisy/src/util/FIFO.h **** 
   3:../../libDaisy/src/util/FIFO.h **** #include <stdint.h>
   4:../../libDaisy/src/util/FIFO.h **** #include <stddef.h>
   5:../../libDaisy/src/util/FIFO.h **** #include <initializer_list>
   6:../../libDaisy/src/util/FIFO.h **** 
   7:../../libDaisy/src/util/FIFO.h **** namespace daisy
   8:../../libDaisy/src/util/FIFO.h **** {
   9:../../libDaisy/src/util/FIFO.h **** /** Capacity-independent base class for FIFO. Use FIFO instead. */
  10:../../libDaisy/src/util/FIFO.h **** template <typename T>
  11:../../libDaisy/src/util/FIFO.h **** class FIFOBase
  12:../../libDaisy/src/util/FIFO.h **** {
  13:../../libDaisy/src/util/FIFO.h ****   protected:
  14:../../libDaisy/src/util/FIFO.h ****     FIFOBase(T* buffer, size_t bufferSize)
  15:../../libDaisy/src/util/FIFO.h ****     : buffer_(buffer), bufferSize_(bufferSize), bufferIn_(0), bufferOut_(0)
  16:../../libDaisy/src/util/FIFO.h ****     {
  17:../../libDaisy/src/util/FIFO.h ****     }
  18:../../libDaisy/src/util/FIFO.h **** 
  19:../../libDaisy/src/util/FIFO.h ****     FIFOBase(T* buffer, size_t bufferSize, std::initializer_list<T> valuesToAdd)
  20:../../libDaisy/src/util/FIFO.h ****     : buffer_(buffer), bufferSize_(bufferSize), bufferIn_(0), bufferOut_(0)
  21:../../libDaisy/src/util/FIFO.h ****     {
  22:../../libDaisy/src/util/FIFO.h ****         PushBack(valuesToAdd);
  23:../../libDaisy/src/util/FIFO.h ****     }
  24:../../libDaisy/src/util/FIFO.h **** 
  25:../../libDaisy/src/util/FIFO.h ****   public:
  26:../../libDaisy/src/util/FIFO.h ****     /** Copies all elements from another FIFO */
  27:../../libDaisy/src/util/FIFO.h ****     FIFOBase<T>& operator=(const FIFOBase<T>& other)
  28:../../libDaisy/src/util/FIFO.h ****     {
  29:../../libDaisy/src/util/FIFO.h ****         bufferIn_ = bufferOut_ = 0;
  30:../../libDaisy/src/util/FIFO.h ****         if(!other.IsEmpty())
  31:../../libDaisy/src/util/FIFO.h ****         {
  32:../../libDaisy/src/util/FIFO.h ****             int readPtr = other.bufferOut_;
  33:../../libDaisy/src/util/FIFO.h ****             while((readPtr != other.bufferIn_) && (bufferIn_ < bufferSize_))
  34:../../libDaisy/src/util/FIFO.h ****             {
  35:../../libDaisy/src/util/FIFO.h ****                 buffer_[bufferIn_++] = other.buffer_[readPtr++];
  36:../../libDaisy/src/util/FIFO.h ****                 if(readPtr >= other.bufferSize_)
  37:../../libDaisy/src/util/FIFO.h ****                     readPtr -= other.bufferSize_;
  38:../../libDaisy/src/util/FIFO.h ****             }
  39:../../libDaisy/src/util/FIFO.h ****         }
  40:../../libDaisy/src/util/FIFO.h ****         return *this;
  41:../../libDaisy/src/util/FIFO.h ****     }
  42:../../libDaisy/src/util/FIFO.h ****     ~FIFOBase() {}
  43:../../libDaisy/src/util/FIFO.h **** 
  44:../../libDaisy/src/util/FIFO.h ****     /** Removes all elements from the FIFO */
  45:../../libDaisy/src/util/FIFO.h ****     void Clear() { bufferIn_ = bufferOut_ = 0; }
  46:../../libDaisy/src/util/FIFO.h **** 
  47:../../libDaisy/src/util/FIFO.h ****     /** Adds an element to the back of the buffer, returning true on
  48:../../libDaisy/src/util/FIFO.h ****         success */
  49:../../libDaisy/src/util/FIFO.h ****     bool PushBack(const T& elementToAdd)
  50:../../libDaisy/src/util/FIFO.h ****     {
  51:../../libDaisy/src/util/FIFO.h ****         if(!IsFull())
  52:../../libDaisy/src/util/FIFO.h ****         {
  53:../../libDaisy/src/util/FIFO.h ****             buffer_[bufferIn_++] = elementToAdd;
ARM GAS  C:\Users\CHIPVI~1\AppData\Local\Temp\ccjCx3Ca.s 			page 6


  54:../../libDaisy/src/util/FIFO.h ****             if(bufferIn_ >= bufferSize_)
  55:../../libDaisy/src/util/FIFO.h ****                 bufferIn_ -= bufferSize_;
  56:../../libDaisy/src/util/FIFO.h ****             return true;
  57:../../libDaisy/src/util/FIFO.h ****         }
  58:../../libDaisy/src/util/FIFO.h ****         return false;
  59:../../libDaisy/src/util/FIFO.h ****     }
  60:../../libDaisy/src/util/FIFO.h **** 
  61:../../libDaisy/src/util/FIFO.h ****     /** Adds multiple elements and returns the number of elements that were added */
  62:../../libDaisy/src/util/FIFO.h ****     int PushBack(std::initializer_list<T> valuesToAdd)
  63:../../libDaisy/src/util/FIFO.h ****     {
  64:../../libDaisy/src/util/FIFO.h ****         int numAdded = 0;
  65:../../libDaisy/src/util/FIFO.h ****         for(const auto& v : valuesToAdd)
  66:../../libDaisy/src/util/FIFO.h ****         {
  67:../../libDaisy/src/util/FIFO.h ****             if(IsFull())
  68:../../libDaisy/src/util/FIFO.h ****                 return numAdded;
  69:../../libDaisy/src/util/FIFO.h **** 
  70:../../libDaisy/src/util/FIFO.h ****             PushBack(v);
  71:../../libDaisy/src/util/FIFO.h ****             numAdded++;
  72:../../libDaisy/src/util/FIFO.h ****         }
  73:../../libDaisy/src/util/FIFO.h ****         return numAdded;
  74:../../libDaisy/src/util/FIFO.h ****     }
  75:../../libDaisy/src/util/FIFO.h **** 
  76:../../libDaisy/src/util/FIFO.h ****     /** returns a reference to the last element */
  77:../../libDaisy/src/util/FIFO.h ****     T& Back()
  78:../../libDaisy/src/util/FIFO.h ****     {
  79:../../libDaisy/src/util/FIFO.h ****         if(IsEmpty())
  80:../../libDaisy/src/util/FIFO.h ****             // invalid, but better not pass a temporary T() object as a reference...
  81:../../libDaisy/src/util/FIFO.h ****             return buffer_[0];
  82:../../libDaisy/src/util/FIFO.h ****         int idx = bufferIn_ - 1;
  83:../../libDaisy/src/util/FIFO.h ****         if(idx < 0)
  84:../../libDaisy/src/util/FIFO.h ****             idx += bufferSize_;
  85:../../libDaisy/src/util/FIFO.h ****         return buffer_[idx];
  86:../../libDaisy/src/util/FIFO.h ****     }
  87:../../libDaisy/src/util/FIFO.h **** 
  88:../../libDaisy/src/util/FIFO.h ****     /** returns a reference to the last element */
  89:../../libDaisy/src/util/FIFO.h ****     const T& Back() const
  90:../../libDaisy/src/util/FIFO.h ****     {
  91:../../libDaisy/src/util/FIFO.h ****         if(IsEmpty())
  92:../../libDaisy/src/util/FIFO.h ****             // invalid, but better not pass a temporary T() object as a reference...
  93:../../libDaisy/src/util/FIFO.h ****             return buffer_[0];
  94:../../libDaisy/src/util/FIFO.h ****         int idx = bufferIn_ - 1;
  95:../../libDaisy/src/util/FIFO.h ****         if(idx < 0)
  96:../../libDaisy/src/util/FIFO.h ****             idx += bufferSize_;
  97:../../libDaisy/src/util/FIFO.h ****         return buffer_[idx];
  98:../../libDaisy/src/util/FIFO.h ****     }
  99:../../libDaisy/src/util/FIFO.h **** 
 100:../../libDaisy/src/util/FIFO.h ****     /** removes and returns an element from the front of the buffer */
 101:../../libDaisy/src/util/FIFO.h ****     T PopFront()
 102:../../libDaisy/src/util/FIFO.h ****     {
 103:../../libDaisy/src/util/FIFO.h ****         if(IsEmpty())
 104:../../libDaisy/src/util/FIFO.h ****             return T();
 105:../../libDaisy/src/util/FIFO.h ****         else
 106:../../libDaisy/src/util/FIFO.h ****         {
 107:../../libDaisy/src/util/FIFO.h ****             const auto result = buffer_[bufferOut_];
 108:../../libDaisy/src/util/FIFO.h ****             bufferOut_++;
 109:../../libDaisy/src/util/FIFO.h ****             if(bufferOut_ >= bufferSize_)
 110:../../libDaisy/src/util/FIFO.h ****                 bufferOut_ -= bufferSize_;
ARM GAS  C:\Users\CHIPVI~1\AppData\Local\Temp\ccjCx3Ca.s 			page 7


 111:../../libDaisy/src/util/FIFO.h ****             return result;
 112:../../libDaisy/src/util/FIFO.h ****         }
 113:../../libDaisy/src/util/FIFO.h ****     }
 114:../../libDaisy/src/util/FIFO.h **** 
 115:../../libDaisy/src/util/FIFO.h ****     /** returns a copy of the first element */
 116:../../libDaisy/src/util/FIFO.h ****     T& Front()
 117:../../libDaisy/src/util/FIFO.h ****     {
 118:../../libDaisy/src/util/FIFO.h ****         if(IsEmpty())
 119:../../libDaisy/src/util/FIFO.h ****             // invalid, but better not pass a temporary T() object as a reference...
 120:../../libDaisy/src/util/FIFO.h ****             return buffer_[0];
 121:../../libDaisy/src/util/FIFO.h ****         return buffer_[bufferOut_];
 122:../../libDaisy/src/util/FIFO.h ****     }
 123:../../libDaisy/src/util/FIFO.h **** 
 124:../../libDaisy/src/util/FIFO.h ****     /** returns a reference to the first element */
 125:../../libDaisy/src/util/FIFO.h ****     const T& Front() const
 126:../../libDaisy/src/util/FIFO.h ****     {
 127:../../libDaisy/src/util/FIFO.h ****         if(IsEmpty())
 128:../../libDaisy/src/util/FIFO.h ****             // invalid, but better not pass a temporary T() object as a reference...
 129:../../libDaisy/src/util/FIFO.h ****             return buffer_[0];
 130:../../libDaisy/src/util/FIFO.h ****         return buffer_[bufferOut_];
 131:../../libDaisy/src/util/FIFO.h ****     }
 132:../../libDaisy/src/util/FIFO.h **** 
 133:../../libDaisy/src/util/FIFO.h ****     /** Returns true if the buffer contains an element equal to the provided value */
 134:../../libDaisy/src/util/FIFO.h ****     bool Contains(const T& element)
 135:../../libDaisy/src/util/FIFO.h ****     {
 136:../../libDaisy/src/util/FIFO.h ****         auto idx = bufferOut_;
 137:../../libDaisy/src/util/FIFO.h ****         while(idx != bufferIn_)
 138:../../libDaisy/src/util/FIFO.h ****         {
 139:../../libDaisy/src/util/FIFO.h ****             if(buffer_[idx] == element)
 140:../../libDaisy/src/util/FIFO.h ****                 return true;
 141:../../libDaisy/src/util/FIFO.h ****             idx++;
 142:../../libDaisy/src/util/FIFO.h ****             if(idx >= bufferSize_)
 143:../../libDaisy/src/util/FIFO.h ****                 idx -= bufferSize_;
 144:../../libDaisy/src/util/FIFO.h ****         }
 145:../../libDaisy/src/util/FIFO.h ****         return false;
 146:../../libDaisy/src/util/FIFO.h ****     }
 147:../../libDaisy/src/util/FIFO.h **** 
 148:../../libDaisy/src/util/FIFO.h ****     /** Returns the number of elements in the buffer that are equal to the provided value */
 149:../../libDaisy/src/util/FIFO.h ****     size_t CountEqualTo(const T& element)
 150:../../libDaisy/src/util/FIFO.h ****     {
 151:../../libDaisy/src/util/FIFO.h ****         size_t result = 0;
 152:../../libDaisy/src/util/FIFO.h ****         size_t idx    = bufferOut_;
 153:../../libDaisy/src/util/FIFO.h ****         while(idx != bufferIn_)
 154:../../libDaisy/src/util/FIFO.h ****         {
 155:../../libDaisy/src/util/FIFO.h ****             if(buffer_[idx] == element)
 156:../../libDaisy/src/util/FIFO.h ****                 result++;
 157:../../libDaisy/src/util/FIFO.h ****             idx++;
 158:../../libDaisy/src/util/FIFO.h ****             if(idx >= bufferSize_)
 159:../../libDaisy/src/util/FIFO.h ****                 idx -= bufferSize_;
 160:../../libDaisy/src/util/FIFO.h ****         }
 161:../../libDaisy/src/util/FIFO.h ****         return result;
 162:../../libDaisy/src/util/FIFO.h ****     }
 163:../../libDaisy/src/util/FIFO.h **** 
 164:../../libDaisy/src/util/FIFO.h ****     /** returns true, if the buffer is empty */
 165:../../libDaisy/src/util/FIFO.h ****     bool IsEmpty() const { return bufferIn_ == bufferOut_; }
 166:../../libDaisy/src/util/FIFO.h **** 
 167:../../libDaisy/src/util/FIFO.h ****     /** returns true, if the buffer is Full */
ARM GAS  C:\Users\CHIPVI~1\AppData\Local\Temp\ccjCx3Ca.s 			page 8


 168:../../libDaisy/src/util/FIFO.h ****     bool IsFull() const { return GetNumElements() == bufferSize_ - 1; }
 169:../../libDaisy/src/util/FIFO.h **** 
 170:../../libDaisy/src/util/FIFO.h ****     /** returns the number of elements in the buffer */
 171:../../libDaisy/src/util/FIFO.h ****     size_t GetNumElements() const
 172:../../libDaisy/src/util/FIFO.h ****     {
 173:../../libDaisy/src/util/FIFO.h ****         int32_t numElements = bufferIn_ - bufferOut_;
 174:../../libDaisy/src/util/FIFO.h ****         if(numElements < 0)
 175:../../libDaisy/src/util/FIFO.h ****             numElements += bufferSize_;
 176:../../libDaisy/src/util/FIFO.h ****         return size_t(numElements);
 177:../../libDaisy/src/util/FIFO.h ****     }
 178:../../libDaisy/src/util/FIFO.h **** 
 179:../../libDaisy/src/util/FIFO.h ****     /** inserts an element "idx" positions behind the first element and returns true if successful 
 180:../../libDaisy/src/util/FIFO.h ****     bool Insert(size_t idx, const T& element)
 181:../../libDaisy/src/util/FIFO.h ****     {
 182:../../libDaisy/src/util/FIFO.h ****         if(idx > GetNumElements())
 183:../../libDaisy/src/util/FIFO.h ****             return false;
 184:../../libDaisy/src/util/FIFO.h ****         if(IsFull())
 185:../../libDaisy/src/util/FIFO.h ****             return false;
 186:../../libDaisy/src/util/FIFO.h ****         if(idx == GetNumElements())
 187:../../libDaisy/src/util/FIFO.h ****         {
 188:../../libDaisy/src/util/FIFO.h ****             PushBack(element);
 189:../../libDaisy/src/util/FIFO.h ****             return true;
 190:../../libDaisy/src/util/FIFO.h ****         }
 191:../../libDaisy/src/util/FIFO.h ****         // copy last element
 192:../../libDaisy/src/util/FIFO.h ****         PushBack(Back());
 193:../../libDaisy/src/util/FIFO.h ****         // move remaining elements: n => n+1
 194:../../libDaisy/src/util/FIFO.h ****         for(int i = GetNumElements() - 2; i > int(idx); i--)
 195:../../libDaisy/src/util/FIFO.h ****             (*this)[i] = (*this)[i - 1];
 196:../../libDaisy/src/util/FIFO.h ****         // insert element
 197:../../libDaisy/src/util/FIFO.h ****         (*this)[idx] = element;
 198:../../libDaisy/src/util/FIFO.h ****         return true;
 199:../../libDaisy/src/util/FIFO.h ****     }
 200:../../libDaisy/src/util/FIFO.h **** 
 201:../../libDaisy/src/util/FIFO.h ****     /** removes the element "idx" positions behind the first element 
 202:../../libDaisy/src/util/FIFO.h ****      *  and returns true if successful */
 203:../../libDaisy/src/util/FIFO.h ****     bool Remove(size_t idx)
 204:../../libDaisy/src/util/FIFO.h ****     {
 205:../../libDaisy/src/util/FIFO.h ****         if(idx >= GetNumElements())
 206:../../libDaisy/src/util/FIFO.h ****             return false;
 207:../../libDaisy/src/util/FIFO.h **** 
 208:../../libDaisy/src/util/FIFO.h ****         size_t index = bufferOut_ + idx;
 209:../../libDaisy/src/util/FIFO.h ****         if(index >= bufferSize_)
 210:../../libDaisy/src/util/FIFO.h ****             index -= bufferSize_;
 211:../../libDaisy/src/util/FIFO.h ****         size_t nextIndex = index + 1;
 212:../../libDaisy/src/util/FIFO.h ****         if(nextIndex >= bufferSize_)
 213:../../libDaisy/src/util/FIFO.h ****             nextIndex -= bufferSize_;
 214:../../libDaisy/src/util/FIFO.h **** 
 215:../../libDaisy/src/util/FIFO.h ****         while(nextIndex != bufferIn_)
 216:../../libDaisy/src/util/FIFO.h ****         {
 217:../../libDaisy/src/util/FIFO.h ****             buffer_[index] = buffer_[nextIndex];
 218:../../libDaisy/src/util/FIFO.h ****             index++;
 219:../../libDaisy/src/util/FIFO.h ****             nextIndex++;
 220:../../libDaisy/src/util/FIFO.h ****             if(index >= bufferSize_)
 221:../../libDaisy/src/util/FIFO.h ****                 index -= bufferSize_;
 222:../../libDaisy/src/util/FIFO.h ****             if(nextIndex >= bufferSize_)
 223:../../libDaisy/src/util/FIFO.h ****                 nextIndex -= bufferSize_;
 224:../../libDaisy/src/util/FIFO.h ****         }
ARM GAS  C:\Users\CHIPVI~1\AppData\Local\Temp\ccjCx3Ca.s 			page 9


 225:../../libDaisy/src/util/FIFO.h **** 
 226:../../libDaisy/src/util/FIFO.h ****         int32_t nextBufferIn = int32_t(bufferIn_) - 1;
 227:../../libDaisy/src/util/FIFO.h ****         if(nextBufferIn < 0)
 228:../../libDaisy/src/util/FIFO.h ****             nextBufferIn += bufferSize_;
 229:../../libDaisy/src/util/FIFO.h ****         bufferIn_ = size_t(nextBufferIn);
 230:../../libDaisy/src/util/FIFO.h **** 
 231:../../libDaisy/src/util/FIFO.h ****         return true;
 232:../../libDaisy/src/util/FIFO.h ****     }
 233:../../libDaisy/src/util/FIFO.h **** 
 234:../../libDaisy/src/util/FIFO.h ****     /** removes all elements from the buffer for which
 235:../../libDaisy/src/util/FIFO.h ****         (buffer(index) == element) returns true and returns the number of
 236:../../libDaisy/src/util/FIFO.h ****         elements that were removed. */
 237:../../libDaisy/src/util/FIFO.h ****     size_t RemoveAllEqualTo(const T& element)
 238:../../libDaisy/src/util/FIFO.h ****     {
 239:../../libDaisy/src/util/FIFO.h ****         size_t numRemoved = 0;
 240:../../libDaisy/src/util/FIFO.h ****         int    idx        = GetNumElements() - 1;
 241:../../libDaisy/src/util/FIFO.h ****         while(idx >= 0)
 242:../../libDaisy/src/util/FIFO.h ****         {
 243:../../libDaisy/src/util/FIFO.h ****             if((*this)[idx] == element)
 244:../../libDaisy/src/util/FIFO.h ****             {
 245:../../libDaisy/src/util/FIFO.h ****                 numRemoved++;
 246:../../libDaisy/src/util/FIFO.h ****                 Remove(idx);
 247:../../libDaisy/src/util/FIFO.h ****                 // was that the last element?
 248:../../libDaisy/src/util/FIFO.h ****                 if(idx == int(GetNumElements()) - 1)
 249:../../libDaisy/src/util/FIFO.h ****                     idx--;
 250:../../libDaisy/src/util/FIFO.h ****             }
 251:../../libDaisy/src/util/FIFO.h ****             else
 252:../../libDaisy/src/util/FIFO.h ****                 idx--;
 253:../../libDaisy/src/util/FIFO.h ****         }
 254:../../libDaisy/src/util/FIFO.h ****         return numRemoved;
 255:../../libDaisy/src/util/FIFO.h ****     }
 256:../../libDaisy/src/util/FIFO.h **** 
 257:../../libDaisy/src/util/FIFO.h ****     /** returns the element "idx" positions behind the first element */
 258:../../libDaisy/src/util/FIFO.h ****     T& operator[](size_t idx)
 259:../../libDaisy/src/util/FIFO.h ****     {
 260:../../libDaisy/src/util/FIFO.h ****         if(idx >= GetNumElements())
 261:../../libDaisy/src/util/FIFO.h ****             // invalid, but better not pass a temporary T() object as a reference...
 262:../../libDaisy/src/util/FIFO.h ****             return buffer_[0];
 263:../../libDaisy/src/util/FIFO.h **** 
 264:../../libDaisy/src/util/FIFO.h ****         size_t index = bufferOut_ + idx;
 265:../../libDaisy/src/util/FIFO.h ****         if(index >= bufferSize_)
 266:../../libDaisy/src/util/FIFO.h ****             index -= bufferSize_;
 267:../../libDaisy/src/util/FIFO.h ****         return buffer_[index];
 268:../../libDaisy/src/util/FIFO.h ****     }
 269:../../libDaisy/src/util/FIFO.h **** 
 270:../../libDaisy/src/util/FIFO.h ****     /** returns the element "idx" positions behind the first element */
 271:../../libDaisy/src/util/FIFO.h ****     const T& operator[](size_t idx) const
 272:../../libDaisy/src/util/FIFO.h ****     {
 273:../../libDaisy/src/util/FIFO.h ****         if(idx >= GetNumElements())
 274:../../libDaisy/src/util/FIFO.h ****             // invalid, but better not pass a temporary T() object as a reference...
 275:../../libDaisy/src/util/FIFO.h ****             return buffer_[0];
 276:../../libDaisy/src/util/FIFO.h **** 
 277:../../libDaisy/src/util/FIFO.h ****         size_t index = bufferOut_ + idx;
 278:../../libDaisy/src/util/FIFO.h ****         if(index >= bufferSize_)
 279:../../libDaisy/src/util/FIFO.h ****             index -= bufferSize_;
 280:../../libDaisy/src/util/FIFO.h ****         return buffer_[index];
 281:../../libDaisy/src/util/FIFO.h ****     }
ARM GAS  C:\Users\CHIPVI~1\AppData\Local\Temp\ccjCx3Ca.s 			page 10


 282:../../libDaisy/src/util/FIFO.h **** 
 283:../../libDaisy/src/util/FIFO.h ****     /** returns the total capacity */
 284:../../libDaisy/src/util/FIFO.h ****     size_t GetCapacity() const { return bufferSize_ - 1; }
 285:../../libDaisy/src/util/FIFO.h **** 
 286:../../libDaisy/src/util/FIFO.h ****   private:
 287:../../libDaisy/src/util/FIFO.h ****     FIFOBase(const FIFOBase<T>&) {} // non copyable
 288:../../libDaisy/src/util/FIFO.h **** 
 289:../../libDaisy/src/util/FIFO.h ****   private:
 290:../../libDaisy/src/util/FIFO.h ****     T*           buffer_;
 291:../../libDaisy/src/util/FIFO.h ****     const size_t bufferSize_;
 292:../../libDaisy/src/util/FIFO.h ****     size_t       bufferIn_;
 293:../../libDaisy/src/util/FIFO.h ****     size_t       bufferOut_;
 294:../../libDaisy/src/util/FIFO.h **** };
 295:../../libDaisy/src/util/FIFO.h **** 
 296:../../libDaisy/src/util/FIFO.h **** /** A simple FIFO ring buffer with a fixed size. */
 297:../../libDaisy/src/util/FIFO.h **** template <typename T, size_t capacity>
 298:../../libDaisy/src/util/FIFO.h **** class FIFO : public FIFOBase<T>
  42              		.loc 3 298 7 view .LVU2
  43              	.LBB399:
  44              	.LBI399:
  42:../../libDaisy/src/util/FIFO.h **** 
  45              		.loc 3 42 5 view .LVU3
  42:../../libDaisy/src/util/FIFO.h **** 
  46              		.loc 3 42 5 is_stmt 0 view .LVU4
  47              	.LBE399:
  48              	.LBE398:
  49              	.LBB400:
  50              	.LBI400:
  51              		.file 4 "../../libDaisy/src/hid/midi_parser.h"
   1:../../libDaisy/src/hid/midi_parser.h **** #pragma once
   2:../../libDaisy/src/hid/midi_parser.h **** #ifndef DSY_MIDI_PARSER_H
   3:../../libDaisy/src/hid/midi_parser.h **** #define DSY_MIDI_PARSER_H
   4:../../libDaisy/src/hid/midi_parser.h **** 
   5:../../libDaisy/src/hid/midi_parser.h **** #include <stdint.h>
   6:../../libDaisy/src/hid/midi_parser.h **** #include <stdlib.h>
   7:../../libDaisy/src/hid/midi_parser.h **** #include "hid/MidiEvent.h"
   8:../../libDaisy/src/hid/midi_parser.h **** 
   9:../../libDaisy/src/hid/midi_parser.h **** namespace daisy
  10:../../libDaisy/src/hid/midi_parser.h **** {
  11:../../libDaisy/src/hid/midi_parser.h **** /** @brief   Utility class for parsing raw byte streams into MIDI messages
  12:../../libDaisy/src/hid/midi_parser.h ****  *  @details Implemented as a state machine designed to parse one byte at a time
  13:../../libDaisy/src/hid/midi_parser.h ****  *  @ingroup midi
  14:../../libDaisy/src/hid/midi_parser.h ****  */
  15:../../libDaisy/src/hid/midi_parser.h **** class MidiParser
  16:../../libDaisy/src/hid/midi_parser.h **** {
  17:../../libDaisy/src/hid/midi_parser.h ****   public:
  18:../../libDaisy/src/hid/midi_parser.h ****     MidiParser(){};
  19:../../libDaisy/src/hid/midi_parser.h ****     ~MidiParser() {}
  52              		.loc 4 19 5 is_stmt 1 view .LVU5
  53              		.loc 4 19 5 is_stmt 0 view .LVU6
  54              	.LBE400:
  55              	.LBB401:
  56              	.LBI401:
  32:../../libDaisy/src/hid/midi.h **** 
  57              		.loc 2 32 5 is_stmt 1 view .LVU7
  32:../../libDaisy/src/hid/midi.h **** 
  58              		.loc 2 32 5 is_stmt 0 view .LVU8
ARM GAS  C:\Users\CHIPVI~1\AppData\Local\Temp\ccjCx3Ca.s 			page 11


  59              	.LBE401:
  60              	.LBE397:
  61              	.LBB402:
  62              	.LBI402:
  63              		.file 5 "../../libDaisy/src/hid/rgb_led.h"
   1:../../libDaisy/src/hid/rgb_led.h **** #pragma once
   2:../../libDaisy/src/hid/rgb_led.h **** #ifndef DSY_RGB_LED_H
   3:../../libDaisy/src/hid/rgb_led.h **** #define DSY_RGB_LED_H
   4:../../libDaisy/src/hid/rgb_led.h **** #include "hid/led.h"
   5:../../libDaisy/src/hid/rgb_led.h **** #include "util/color.h"
   6:../../libDaisy/src/hid/rgb_led.h **** 
   7:../../libDaisy/src/hid/rgb_led.h **** namespace daisy
   8:../../libDaisy/src/hid/rgb_led.h **** {
   9:../../libDaisy/src/hid/rgb_led.h **** /** @addtogroup feedback
  10:../../libDaisy/src/hid/rgb_led.h ****     @{
  11:../../libDaisy/src/hid/rgb_led.h **** */
  12:../../libDaisy/src/hid/rgb_led.h **** 
  13:../../libDaisy/src/hid/rgb_led.h **** /** 3x LEDs configured as an RGB for ease of use. */
  14:../../libDaisy/src/hid/rgb_led.h **** class RgbLed
  15:../../libDaisy/src/hid/rgb_led.h **** {
  16:../../libDaisy/src/hid/rgb_led.h ****   public:
  17:../../libDaisy/src/hid/rgb_led.h ****     RgbLed() {}
  18:../../libDaisy/src/hid/rgb_led.h ****     ~RgbLed() {}
  64              		.loc 5 18 5 is_stmt 1 view .LVU9
  65              	.LBB403:
  66              	.LBI403:
  67              		.file 6 "../../libDaisy/src/hid/led.h"
   1:../../libDaisy/src/hid/led.h **** 
   2:../../libDaisy/src/hid/led.h **** #pragma once
   3:../../libDaisy/src/hid/led.h **** #ifndef DSY_LED_H
   4:../../libDaisy/src/hid/led.h **** #define DSY_LED_H
   5:../../libDaisy/src/hid/led.h **** #include "daisy_core.h"
   6:../../libDaisy/src/hid/led.h **** #include "per/gpio.h"
   7:../../libDaisy/src/hid/led.h **** 
   8:../../libDaisy/src/hid/led.h **** /* TODO - Get this set up to work with the dev_leddriver stuff as well
   9:../../libDaisy/src/hid/led.h **** - Setup Hardware PWM for pins that have it
  10:../../libDaisy/src/hid/led.h **** */
  11:../../libDaisy/src/hid/led.h **** 
  12:../../libDaisy/src/hid/led.h **** namespace daisy
  13:../../libDaisy/src/hid/led.h **** {
  14:../../libDaisy/src/hid/led.h **** /**
  15:../../libDaisy/src/hid/led.h ****     @brief LED Class providing simple Software PWM ability, etc \n 
  16:../../libDaisy/src/hid/led.h ****     Eventually this will work with hardware PWM, and external LED Driver devices as well.
  17:../../libDaisy/src/hid/led.h ****     @author shensley
  18:../../libDaisy/src/hid/led.h ****     @date March 2020
  19:../../libDaisy/src/hid/led.h ****     @ingroup feedback
  20:../../libDaisy/src/hid/led.h **** */
  21:../../libDaisy/src/hid/led.h **** class Led
  22:../../libDaisy/src/hid/led.h **** {
  23:../../libDaisy/src/hid/led.h ****   public:
  24:../../libDaisy/src/hid/led.h ****     Led() {}
  25:../../libDaisy/src/hid/led.h ****     ~Led() {}
  68              		.loc 6 25 5 view .LVU10
  69              		.loc 6 25 5 is_stmt 0 view .LVU11
  70              	.LBE403:
  71              	.LBB404:
  72              	.LBI404:
ARM GAS  C:\Users\CHIPVI~1\AppData\Local\Temp\ccjCx3Ca.s 			page 12


  73              		.loc 6 25 5 is_stmt 1 view .LVU12
  74              		.loc 6 25 5 is_stmt 0 view .LVU13
  75              	.LBE404:
  76              	.LBB405:
  77              	.LBI405:
  78              		.loc 6 25 5 is_stmt 1 view .LVU14
  79              		.loc 6 25 5 is_stmt 0 view .LVU15
  80              	.LBE405:
  81              	.LBE402:
  82              	.LBB406:
  83              	.LBI406:
  84              		.loc 5 18 5 is_stmt 1 view .LVU16
  85              	.LBB407:
  86              	.LBI407:
  87              		.loc 6 25 5 view .LVU17
  88              		.loc 6 25 5 is_stmt 0 view .LVU18
  89              	.LBE407:
  90              	.LBB408:
  91              	.LBI408:
  92              		.loc 6 25 5 is_stmt 1 view .LVU19
  93              		.loc 6 25 5 is_stmt 0 view .LVU20
  94              	.LBE408:
  95              	.LBB409:
  96              	.LBI409:
  97              		.loc 6 25 5 is_stmt 1 view .LVU21
  98              		.loc 6 25 5 is_stmt 0 view .LVU22
  99              	.LBE409:
 100              	.LBE406:
 101              	.LBB410:
 102              	.LBI410:
 103              		.file 7 "../../libDaisy/src/hid/switch.h"
   1:../../libDaisy/src/hid/switch.h **** #pragma once
   2:../../libDaisy/src/hid/switch.h **** #ifndef DSY_SWITCH_H
   3:../../libDaisy/src/hid/switch.h **** #define DSY_SWITCH_H
   4:../../libDaisy/src/hid/switch.h **** #include "daisy_core.h"
   5:../../libDaisy/src/hid/switch.h **** #include "per/gpio.h"
   6:../../libDaisy/src/hid/switch.h **** #include "sys/system.h"
   7:../../libDaisy/src/hid/switch.h **** 
   8:../../libDaisy/src/hid/switch.h **** namespace daisy
   9:../../libDaisy/src/hid/switch.h **** {
  10:../../libDaisy/src/hid/switch.h **** /** 
  11:../../libDaisy/src/hid/switch.h ****     Generic Class for handling momentary/latching switches \n 
  12:../../libDaisy/src/hid/switch.h ****     Inspired/influenced by Mutable Instruments (pichenettes) Switch classes
  13:../../libDaisy/src/hid/switch.h ****     @author Stephen Hensley
  14:../../libDaisy/src/hid/switch.h ****     @date December 2019
  15:../../libDaisy/src/hid/switch.h ****     @ingroup controls
  16:../../libDaisy/src/hid/switch.h **** */
  17:../../libDaisy/src/hid/switch.h **** class Switch
  18:../../libDaisy/src/hid/switch.h **** {
  19:../../libDaisy/src/hid/switch.h ****   public:
  20:../../libDaisy/src/hid/switch.h ****     /** Specifies the expected behavior of the switch */
  21:../../libDaisy/src/hid/switch.h ****     enum Type
  22:../../libDaisy/src/hid/switch.h ****     {
  23:../../libDaisy/src/hid/switch.h ****         TYPE_TOGGLE,    /**< & */
  24:../../libDaisy/src/hid/switch.h ****         TYPE_MOMENTARY, /**< & */
  25:../../libDaisy/src/hid/switch.h ****     };
  26:../../libDaisy/src/hid/switch.h ****     /** Specifies whether the pressed is HIGH or LOW. */
ARM GAS  C:\Users\CHIPVI~1\AppData\Local\Temp\ccjCx3Ca.s 			page 13


  27:../../libDaisy/src/hid/switch.h ****     enum Polarity
  28:../../libDaisy/src/hid/switch.h ****     {
  29:../../libDaisy/src/hid/switch.h ****         POLARITY_NORMAL,   /**< & */
  30:../../libDaisy/src/hid/switch.h ****         POLARITY_INVERTED, /**< & */
  31:../../libDaisy/src/hid/switch.h ****     };
  32:../../libDaisy/src/hid/switch.h **** 
  33:../../libDaisy/src/hid/switch.h ****     /** Specifies whether to use built-in Pull Up/Down resistors to hold button at a given state wh
  34:../../libDaisy/src/hid/switch.h ****     enum Pull
  35:../../libDaisy/src/hid/switch.h ****     {
  36:../../libDaisy/src/hid/switch.h ****         PULL_UP,   /**< & */
  37:../../libDaisy/src/hid/switch.h ****         PULL_DOWN, /**< & */
  38:../../libDaisy/src/hid/switch.h ****         PULL_NONE, /**< & */
  39:../../libDaisy/src/hid/switch.h ****     };
  40:../../libDaisy/src/hid/switch.h **** 
  41:../../libDaisy/src/hid/switch.h ****     Switch() {}
  42:../../libDaisy/src/hid/switch.h ****     ~Switch() {}
 104              		.loc 7 42 5 is_stmt 1 view .LVU23
 105              		.loc 7 42 5 is_stmt 0 view .LVU24
 106              	.LBE410:
 107              	.LBB411:
 108              	.LBI411:
 109              		.loc 7 42 5 is_stmt 1 view .LVU25
 110              		.loc 7 42 5 is_stmt 0 view .LVU26
 111              	.LBE411:
 112              	.LBB412:
 113              	.LBI412:
 114              		.file 8 "../../libDaisy/src/hid/ctrl.h"
   1:../../libDaisy/src/hid/ctrl.h **** #pragma once
   2:../../libDaisy/src/hid/ctrl.h **** #ifndef DSY_KNOB_H
   3:../../libDaisy/src/hid/ctrl.h **** #define DSY_KNOB_H /**< & */
   4:../../libDaisy/src/hid/ctrl.h **** #include <stdint.h>
   5:../../libDaisy/src/hid/ctrl.h **** 
   6:../../libDaisy/src/hid/ctrl.h **** #ifdef __cplusplus
   7:../../libDaisy/src/hid/ctrl.h **** namespace daisy
   8:../../libDaisy/src/hid/ctrl.h **** {
   9:../../libDaisy/src/hid/ctrl.h **** /**
  10:../../libDaisy/src/hid/ctrl.h ****     @brief Hardware Interface for control inputs \n 
  11:../../libDaisy/src/hid/ctrl.h ****     Primarily designed for ADC input controls such as \n 
  12:../../libDaisy/src/hid/ctrl.h ****     potentiometers, and control voltage. \n 
  13:../../libDaisy/src/hid/ctrl.h ****     @author Stephen Hensley
  14:../../libDaisy/src/hid/ctrl.h ****     @date November 2019
  15:../../libDaisy/src/hid/ctrl.h ****     @ingroup controls
  16:../../libDaisy/src/hid/ctrl.h **** */
  17:../../libDaisy/src/hid/ctrl.h **** class AnalogControl
  18:../../libDaisy/src/hid/ctrl.h **** {
  19:../../libDaisy/src/hid/ctrl.h ****   public:
  20:../../libDaisy/src/hid/ctrl.h ****     /** Constructor */
  21:../../libDaisy/src/hid/ctrl.h ****     AnalogControl() {}
  22:../../libDaisy/src/hid/ctrl.h ****     /** destructor */
  23:../../libDaisy/src/hid/ctrl.h ****     ~AnalogControl() {}
 115              		.loc 8 23 5 is_stmt 1 view .LVU27
 116              		.loc 8 23 5 is_stmt 0 view .LVU28
 117              	.LBE412:
 118              	.LBB413:
 119              	.LBI413:
 120              		.loc 8 23 5 is_stmt 1 view .LVU29
 121              		.loc 8 23 5 is_stmt 0 view .LVU30
ARM GAS  C:\Users\CHIPVI~1\AppData\Local\Temp\ccjCx3Ca.s 			page 14


 122              	.LBE413:
 123              	.LBB414:
 124              	.LBI414:
 125              		.file 9 "../../libDaisy/src/hid/encoder.h"
   1:../../libDaisy/src/hid/encoder.h **** #pragma once
   2:../../libDaisy/src/hid/encoder.h **** #ifndef DSY_ENCODER_H
   3:../../libDaisy/src/hid/encoder.h **** #define DSY_ENCODER_H
   4:../../libDaisy/src/hid/encoder.h **** #include "daisy_core.h"
   5:../../libDaisy/src/hid/encoder.h **** #include "per/gpio.h"
   6:../../libDaisy/src/hid/encoder.h **** #include "hid/switch.h"
   7:../../libDaisy/src/hid/encoder.h **** 
   8:../../libDaisy/src/hid/encoder.h **** namespace daisy
   9:../../libDaisy/src/hid/encoder.h **** {
  10:../../libDaisy/src/hid/encoder.h **** /** 
  11:../../libDaisy/src/hid/encoder.h ****     @brief Generic Class for handling Quadrature Encoders \n 
  12:../../libDaisy/src/hid/encoder.h ****     Inspired/influenced by Mutable Instruments (pichenettes) Encoder classes
  13:../../libDaisy/src/hid/encoder.h ****     @author Stephen Hensley
  14:../../libDaisy/src/hid/encoder.h ****     @date December 2019
  15:../../libDaisy/src/hid/encoder.h ****     @ingroup controls
  16:../../libDaisy/src/hid/encoder.h **** */
  17:../../libDaisy/src/hid/encoder.h **** class Encoder
  18:../../libDaisy/src/hid/encoder.h **** {
  19:../../libDaisy/src/hid/encoder.h ****   public:
  20:../../libDaisy/src/hid/encoder.h ****     Encoder() {}
  21:../../libDaisy/src/hid/encoder.h ****     ~Encoder() {}
 126              		.loc 9 21 5 is_stmt 1 view .LVU31
 127              	.LBB415:
 128              	.LBI415:
 129              		.loc 7 42 5 view .LVU32
 130              		.loc 7 42 5 is_stmt 0 view .LVU33
 131              	.LBE415:
 132              	.LBE414:
 133              	.LBB416:
 134              	.LBI416:
 135              		.file 10 "../../libDaisy/src/daisy_seed.h"
   1:../../libDaisy/src/daisy_seed.h **** #pragma once
   2:../../libDaisy/src/daisy_seed.h **** #ifndef DSY_SEED_H
   3:../../libDaisy/src/daisy_seed.h **** #define DSY_SEED_H
   4:../../libDaisy/src/daisy_seed.h **** 
   5:../../libDaisy/src/daisy_seed.h **** #include "daisy.h"
   6:../../libDaisy/src/daisy_seed.h **** 
   7:../../libDaisy/src/daisy_seed.h **** //Uncomment this out if you're still using the rev2 hardware
   8:../../libDaisy/src/daisy_seed.h **** //#define SEED_REV2
   9:../../libDaisy/src/daisy_seed.h **** 
  10:../../libDaisy/src/daisy_seed.h **** namespace daisy
  11:../../libDaisy/src/daisy_seed.h **** {
  12:../../libDaisy/src/daisy_seed.h **** /**
  13:../../libDaisy/src/daisy_seed.h ****    @brief This is the higher-level interface for the Daisy board. \n 
  14:../../libDaisy/src/daisy_seed.h ****     All basic peripheral configuration/initialization is setup here. \n
  15:../../libDaisy/src/daisy_seed.h **** 
  16:../../libDaisy/src/daisy_seed.h ****    @ingroup boards
  17:../../libDaisy/src/daisy_seed.h **** */
  18:../../libDaisy/src/daisy_seed.h **** class DaisySeed
  19:../../libDaisy/src/daisy_seed.h **** {
  20:../../libDaisy/src/daisy_seed.h ****   public:
  21:../../libDaisy/src/daisy_seed.h ****     DaisySeed() {}
  22:../../libDaisy/src/daisy_seed.h ****     ~DaisySeed() {}
ARM GAS  C:\Users\CHIPVI~1\AppData\Local\Temp\ccjCx3Ca.s 			page 15


 136              		.loc 10 22 5 is_stmt 1 view .LVU34
 137              	.LBB417:
 138              	.LBI417:
 139              		.file 11 "../../libDaisy/src/sys/system.h"
   1:../../libDaisy/src/sys/system.h **** #ifndef DSY_SYSTEM_H
   2:../../libDaisy/src/sys/system.h **** #define DSY_SYSTEM_H
   3:../../libDaisy/src/sys/system.h **** 
   4:../../libDaisy/src/sys/system.h **** #ifndef UNIT_TEST // for unit tests, a dummy implementation is provided below
   5:../../libDaisy/src/sys/system.h **** 
   6:../../libDaisy/src/sys/system.h **** #include <cstdint>
   7:../../libDaisy/src/sys/system.h **** #include "per/tim.h"
   8:../../libDaisy/src/sys/system.h **** 
   9:../../libDaisy/src/sys/system.h **** namespace daisy
  10:../../libDaisy/src/sys/system.h **** {
  11:../../libDaisy/src/sys/system.h **** /** A handle for interacting with the Core System.
  12:../../libDaisy/src/sys/system.h ****  ** This includes the Clock tree, MPU, global DMA initialization,
  13:../../libDaisy/src/sys/system.h ****  ** cache handling, and any other necessary global initiailzation
  14:../../libDaisy/src/sys/system.h ****  **
  15:../../libDaisy/src/sys/system.h ****  ** @author shensley
  16:../../libDaisy/src/sys/system.h ****  ** @ingroup system
  17:../../libDaisy/src/sys/system.h ****  */
  18:../../libDaisy/src/sys/system.h **** class System
  19:../../libDaisy/src/sys/system.h **** {
  20:../../libDaisy/src/sys/system.h ****   public:
  21:../../libDaisy/src/sys/system.h ****     /** Contains settings for initializing the System */
  22:../../libDaisy/src/sys/system.h ****     struct Config
  23:../../libDaisy/src/sys/system.h ****     {
  24:../../libDaisy/src/sys/system.h ****         /** Specifies the system clock frequency that feeds APB/AHB clocks, etc. */
  25:../../libDaisy/src/sys/system.h ****         enum class SysClkFreq
  26:../../libDaisy/src/sys/system.h ****         {
  27:../../libDaisy/src/sys/system.h ****             FREQ_400MHZ,
  28:../../libDaisy/src/sys/system.h ****             FREQ_480MHZ,
  29:../../libDaisy/src/sys/system.h ****         };
  30:../../libDaisy/src/sys/system.h **** 
  31:../../libDaisy/src/sys/system.h ****         /** Method to call on the struct to set to defaults
  32:../../libDaisy/src/sys/system.h ****          ** CPU Freq set to 400MHz
  33:../../libDaisy/src/sys/system.h ****          ** Cache Enabled
  34:../../libDaisy/src/sys/system.h ****          ** */
  35:../../libDaisy/src/sys/system.h ****         void Defaults()
  36:../../libDaisy/src/sys/system.h ****         {
  37:../../libDaisy/src/sys/system.h ****             cpu_freq    = SysClkFreq::FREQ_400MHZ;
  38:../../libDaisy/src/sys/system.h ****             use_dcache  = true;
  39:../../libDaisy/src/sys/system.h ****             use_icache  = true;
  40:../../libDaisy/src/sys/system.h ****             skip_clocks = false;
  41:../../libDaisy/src/sys/system.h ****         }
  42:../../libDaisy/src/sys/system.h **** 
  43:../../libDaisy/src/sys/system.h ****         /** Method to call on the struct to set to boost mode:
  44:../../libDaisy/src/sys/system.h ****          ** CPU Freq set to 480MHz
  45:../../libDaisy/src/sys/system.h ****          ** Cache Enabled
  46:../../libDaisy/src/sys/system.h ****          ** */
  47:../../libDaisy/src/sys/system.h ****         void Boost()
  48:../../libDaisy/src/sys/system.h ****         {
  49:../../libDaisy/src/sys/system.h ****             cpu_freq    = SysClkFreq::FREQ_480MHZ;
  50:../../libDaisy/src/sys/system.h ****             use_dcache  = true;
  51:../../libDaisy/src/sys/system.h ****             use_icache  = true;
  52:../../libDaisy/src/sys/system.h ****             skip_clocks = false;
  53:../../libDaisy/src/sys/system.h ****         }
ARM GAS  C:\Users\CHIPVI~1\AppData\Local\Temp\ccjCx3Ca.s 			page 16


  54:../../libDaisy/src/sys/system.h **** 
  55:../../libDaisy/src/sys/system.h ****         SysClkFreq cpu_freq;
  56:../../libDaisy/src/sys/system.h ****         bool       use_dcache;
  57:../../libDaisy/src/sys/system.h ****         bool       use_icache;
  58:../../libDaisy/src/sys/system.h ****         bool       skip_clocks;
  59:../../libDaisy/src/sys/system.h ****     };
  60:../../libDaisy/src/sys/system.h **** 
  61:../../libDaisy/src/sys/system.h ****     /** Describes the different regions of memory available to the Daisy */
  62:../../libDaisy/src/sys/system.h ****     enum MemoryRegion
  63:../../libDaisy/src/sys/system.h ****     {
  64:../../libDaisy/src/sys/system.h ****         INTERNAL_FLASH = 0,
  65:../../libDaisy/src/sys/system.h ****         ITCMRAM,
  66:../../libDaisy/src/sys/system.h ****         DTCMRAM,
  67:../../libDaisy/src/sys/system.h ****         SRAM_D1,
  68:../../libDaisy/src/sys/system.h ****         SRAM_D2,
  69:../../libDaisy/src/sys/system.h ****         SRAM_D3,
  70:../../libDaisy/src/sys/system.h ****         SDRAM,
  71:../../libDaisy/src/sys/system.h ****         QSPI,
  72:../../libDaisy/src/sys/system.h ****         INVALID_ADDRESS,
  73:../../libDaisy/src/sys/system.h ****     };
  74:../../libDaisy/src/sys/system.h **** 
  75:../../libDaisy/src/sys/system.h ****     /** Bootloader struct for controlling bootloading parameters */
  76:../../libDaisy/src/sys/system.h ****     struct BootInfo
  77:../../libDaisy/src/sys/system.h ****     {
  78:../../libDaisy/src/sys/system.h ****         enum class Type : uint32_t
  79:../../libDaisy/src/sys/system.h ****         {
  80:../../libDaisy/src/sys/system.h ****             INVALID      = 0x00000000,
  81:../../libDaisy/src/sys/system.h ****             JUMP         = 0xDEADBEEF,
  82:../../libDaisy/src/sys/system.h ****             SKIP_TIMEOUT = 0x5AFEB007,
  83:../../libDaisy/src/sys/system.h ****             INF_TIMEOUT  = 0xB0074EFA,
  84:../../libDaisy/src/sys/system.h ****         } status;
  85:../../libDaisy/src/sys/system.h ****         uint32_t data;
  86:../../libDaisy/src/sys/system.h ****         enum class Version : uint32_t
  87:../../libDaisy/src/sys/system.h ****         {
  88:../../libDaisy/src/sys/system.h ****             LT_v6_0 = 0, // Less than v6.0
  89:../../libDaisy/src/sys/system.h ****             NONE,        // No bootloader present
  90:../../libDaisy/src/sys/system.h ****             v6_0,        // v6.0
  91:../../libDaisy/src/sys/system.h ****             v6_1,        // v6.1 or greater
  92:../../libDaisy/src/sys/system.h ****             LAST
  93:../../libDaisy/src/sys/system.h ****         } version;
  94:../../libDaisy/src/sys/system.h ****     };
  95:../../libDaisy/src/sys/system.h **** 
  96:../../libDaisy/src/sys/system.h ****     System() {}
  97:../../libDaisy/src/sys/system.h ****     ~System() {}
 140              		.loc 11 97 5 view .LVU35
 141              		.loc 11 97 5 is_stmt 0 view .LVU36
 142              	.LBE417:
 143              	.LBB418:
 144              	.LBI418:
 145              		.file 12 "../../libDaisy/src/hid/usb.h"
   1:../../libDaisy/src/hid/usb.h **** #pragma once
   2:../../libDaisy/src/hid/usb.h **** #ifndef DSY_HID_USB_H
   3:../../libDaisy/src/hid/usb.h **** #define DSY_HID_USB_H
   4:../../libDaisy/src/hid/usb.h **** #include <stdint.h>
   5:../../libDaisy/src/hid/usb.h **** #include <stdlib.h>
   6:../../libDaisy/src/hid/usb.h **** 
   7:../../libDaisy/src/hid/usb.h **** namespace daisy
ARM GAS  C:\Users\CHIPVI~1\AppData\Local\Temp\ccjCx3Ca.s 			page 17


   8:../../libDaisy/src/hid/usb.h **** /** @addtogroup human_interface
   9:../../libDaisy/src/hid/usb.h ****     @{
  10:../../libDaisy/src/hid/usb.h **** */
  11:../../libDaisy/src/hid/usb.h **** 
  12:../../libDaisy/src/hid/usb.h **** {
  13:../../libDaisy/src/hid/usb.h **** /** 
  14:../../libDaisy/src/hid/usb.h ****     @brief Interface for initializing and using the USB Peripherals on the daisy
  15:../../libDaisy/src/hid/usb.h ****     @author Stephen Hensley
  16:../../libDaisy/src/hid/usb.h ****     @date December 2019
  17:../../libDaisy/src/hid/usb.h **** */
  18:../../libDaisy/src/hid/usb.h **** class UsbHandle
  19:../../libDaisy/src/hid/usb.h **** {
  20:../../libDaisy/src/hid/usb.h ****   public:
  21:../../libDaisy/src/hid/usb.h ****     /** Return values for USBHandle Functions */
  22:../../libDaisy/src/hid/usb.h ****     enum class Result
  23:../../libDaisy/src/hid/usb.h ****     {
  24:../../libDaisy/src/hid/usb.h ****         OK,
  25:../../libDaisy/src/hid/usb.h ****         ERR,
  26:../../libDaisy/src/hid/usb.h ****     };
  27:../../libDaisy/src/hid/usb.h **** 
  28:../../libDaisy/src/hid/usb.h ****     /** Specified which of the two USB Peripherals to initialize. */
  29:../../libDaisy/src/hid/usb.h ****     enum UsbPeriph
  30:../../libDaisy/src/hid/usb.h ****     {
  31:../../libDaisy/src/hid/usb.h ****         FS_INTERNAL, /**< Internal pin */
  32:../../libDaisy/src/hid/usb.h ****         FS_EXTERNAL, /**< FS External D+ pin is Pin 38 (GPIO32). FS External D- pin is Pin 37 (GPIO
  33:../../libDaisy/src/hid/usb.h ****         FS_BOTH,     /**< Both */
  34:../../libDaisy/src/hid/usb.h ****     };
  35:../../libDaisy/src/hid/usb.h **** 
  36:../../libDaisy/src/hid/usb.h **** 
  37:../../libDaisy/src/hid/usb.h ****     /** Function called upon reception of a buffer */
  38:../../libDaisy/src/hid/usb.h ****     typedef void (*ReceiveCallback)(uint8_t* buff, uint32_t* len);
  39:../../libDaisy/src/hid/usb.h **** 
  40:../../libDaisy/src/hid/usb.h ****     UsbHandle() {}
  41:../../libDaisy/src/hid/usb.h **** 
  42:../../libDaisy/src/hid/usb.h ****     ~UsbHandle() {}
 146              		.loc 12 42 5 is_stmt 1 view .LVU37
 147              		.loc 12 42 5 is_stmt 0 view .LVU38
 148              	.LBE418:
 149              	.LBB419:
 150              	.LBI419:
 151              		.file 13 "../../libDaisy/src/per/adc.h"
   1:../../libDaisy/src/per/adc.h **** #pragma once
   2:../../libDaisy/src/per/adc.h **** #ifndef DSY_ADC_H
   3:../../libDaisy/src/per/adc.h **** #define DSY_ADC_H /**< Macro */
   4:../../libDaisy/src/per/adc.h **** #include <stdint.h>
   5:../../libDaisy/src/per/adc.h **** #include <stdlib.h>
   6:../../libDaisy/src/per/adc.h **** #include "daisy_core.h"
   7:../../libDaisy/src/per/adc.h **** #include "per/gpio.h"
   8:../../libDaisy/src/per/adc.h **** 
   9:../../libDaisy/src/per/adc.h **** #define DSY_ADC_MAX_CHANNELS 16 /**< Maximum number of ADC channels */
  10:../../libDaisy/src/per/adc.h **** 
  11:../../libDaisy/src/per/adc.h **** namespace daisy
  12:../../libDaisy/src/per/adc.h **** {
  13:../../libDaisy/src/per/adc.h **** /** @addtogroup per_analog
  14:../../libDaisy/src/per/adc.h ****     @{
  15:../../libDaisy/src/per/adc.h **** */
  16:../../libDaisy/src/per/adc.h **** 
ARM GAS  C:\Users\CHIPVI~1\AppData\Local\Temp\ccjCx3Ca.s 			page 18


  17:../../libDaisy/src/per/adc.h **** /* While there may not be many configuration options here,
  18:../../libDaisy/src/per/adc.h **** using a struct like this allows us to add more configuration
  19:../../libDaisy/src/per/adc.h **** later without breaking existing functionality.
  20:../../libDaisy/src/per/adc.h **** */
  21:../../libDaisy/src/per/adc.h **** 
  22:../../libDaisy/src/per/adc.h **** /** @brief   Configuration Structure for an ADC Channel 
  23:../../libDaisy/src/per/adc.h ****  *  @details This can be used to configure a a single input, 
  24:../../libDaisy/src/per/adc.h ****  *           or a multiplexed input, allowing up to 8 inputs on 
  25:../../libDaisy/src/per/adc.h ****  *           one channel.
  26:../../libDaisy/src/per/adc.h ****  *  @note    Sharing data lines to multiple muxes _is_ possible, but
  27:../../libDaisy/src/per/adc.h ****  *           each channel sharing data lines must be set to the maximum
  28:../../libDaisy/src/per/adc.h ****  *           number of channels, even if some multiplexers have fewer
  29:../../libDaisy/src/per/adc.h ****  *           inputs connected.
  30:../../libDaisy/src/per/adc.h **** */
  31:../../libDaisy/src/per/adc.h **** struct AdcChannelConfig
  32:../../libDaisy/src/per/adc.h **** {
  33:../../libDaisy/src/per/adc.h ****     /** Which pin to use for multiplexing */
  34:../../libDaisy/src/per/adc.h ****     enum MuxPin
  35:../../libDaisy/src/per/adc.h ****     {
  36:../../libDaisy/src/per/adc.h ****         MUX_SEL_0,    /**< & */
  37:../../libDaisy/src/per/adc.h ****         MUX_SEL_1,    /**< & */
  38:../../libDaisy/src/per/adc.h ****         MUX_SEL_2,    /**< & */
  39:../../libDaisy/src/per/adc.h ****         MUX_SEL_LAST, /**< & */
  40:../../libDaisy/src/per/adc.h ****     };
  41:../../libDaisy/src/per/adc.h **** 
  42:../../libDaisy/src/per/adc.h ****     /** \brief per channel conversion speed added to fixed time based on bitdepth, etc. */
  43:../../libDaisy/src/per/adc.h ****     enum ConversionSpeed
  44:../../libDaisy/src/per/adc.h ****     {
  45:../../libDaisy/src/per/adc.h ****         SPEED_1CYCLES_5,
  46:../../libDaisy/src/per/adc.h ****         SPEED_2CYCLES_5,
  47:../../libDaisy/src/per/adc.h ****         SPEED_8CYCLES_5,
  48:../../libDaisy/src/per/adc.h ****         SPEED_16CYCLES_5,
  49:../../libDaisy/src/per/adc.h ****         SPEED_32CYCLES_5,
  50:../../libDaisy/src/per/adc.h ****         SPEED_64CYCLES_5,
  51:../../libDaisy/src/per/adc.h ****         SPEED_387CYCLES_5,
  52:../../libDaisy/src/per/adc.h ****         SPEED_810CYCLES_5,
  53:../../libDaisy/src/per/adc.h ****     };
  54:../../libDaisy/src/per/adc.h **** 
  55:../../libDaisy/src/per/adc.h ****     /** Initializes a single ADC pin as an ADC. 
  56:../../libDaisy/src/per/adc.h ****     \param pin Pin to init.
  57:../../libDaisy/src/per/adc.h ****     \param speed conversion speed for this pin defaults to 8.5 cycles
  58:../../libDaisy/src/per/adc.h ****      */
  59:../../libDaisy/src/per/adc.h ****     void InitSingle(dsy_gpio_pin pin, ConversionSpeed speed = SPEED_8CYCLES_5);
  60:../../libDaisy/src/per/adc.h **** 
  61:../../libDaisy/src/per/adc.h ****     /** 
  62:../../libDaisy/src/per/adc.h ****     Initializes a single ADC pin as a Multiplexed ADC.
  63:../../libDaisy/src/per/adc.h ****     Requires a CD405X Multiplexer connected to the pin.
  64:../../libDaisy/src/per/adc.h ****     You only need to supply the mux pins that are required,
  65:../../libDaisy/src/per/adc.h ****     e.g. a 4052 mux would only require mux_0 and mux_1.
  66:../../libDaisy/src/per/adc.h ****     Internal Callbacks handle the pin addressing.
  67:../../libDaisy/src/per/adc.h ****     \param adc_pin &
  68:../../libDaisy/src/per/adc.h ****     \param mux_channels must be 1-8
  69:../../libDaisy/src/per/adc.h ****     \param mux_0 First mux pin
  70:../../libDaisy/src/per/adc.h ****     \param mux_1 Second mux pin
  71:../../libDaisy/src/per/adc.h ****     \param mux_2 Third mux pin
  72:../../libDaisy/src/per/adc.h ****     \param speed conversion speed for this pin defaults to 8.5 cycles
  73:../../libDaisy/src/per/adc.h ****     */
ARM GAS  C:\Users\CHIPVI~1\AppData\Local\Temp\ccjCx3Ca.s 			page 19


  74:../../libDaisy/src/per/adc.h ****     void InitMux(dsy_gpio_pin    adc_pin,
  75:../../libDaisy/src/per/adc.h ****                  size_t          mux_channels,
  76:../../libDaisy/src/per/adc.h ****                  dsy_gpio_pin    mux_0,
  77:../../libDaisy/src/per/adc.h ****                  dsy_gpio_pin    mux_1 = {DSY_GPIOX, 0},
  78:../../libDaisy/src/per/adc.h ****                  dsy_gpio_pin    mux_2 = {DSY_GPIOX, 0},
  79:../../libDaisy/src/per/adc.h ****                  ConversionSpeed speed = SPEED_8CYCLES_5);
  80:../../libDaisy/src/per/adc.h **** 
  81:../../libDaisy/src/per/adc.h ****     dsy_gpio        pin_;                   /**< & */
  82:../../libDaisy/src/per/adc.h ****     dsy_gpio        mux_pin_[MUX_SEL_LAST]; /**< & */
  83:../../libDaisy/src/per/adc.h ****     uint8_t         mux_channels_;          /**< & */
  84:../../libDaisy/src/per/adc.h ****     ConversionSpeed speed_;
  85:../../libDaisy/src/per/adc.h **** };
  86:../../libDaisy/src/per/adc.h **** 
  87:../../libDaisy/src/per/adc.h **** /**
  88:../../libDaisy/src/per/adc.h ****    @brief Handler for analog to digital conversion
  89:../../libDaisy/src/per/adc.h **** */
  90:../../libDaisy/src/per/adc.h **** class AdcHandle
  91:../../libDaisy/src/per/adc.h **** {
  92:../../libDaisy/src/per/adc.h ****   public:
  93:../../libDaisy/src/per/adc.h ****     /** Supported oversampling amounts */
  94:../../libDaisy/src/per/adc.h ****     enum OverSampling
  95:../../libDaisy/src/per/adc.h ****     {
  96:../../libDaisy/src/per/adc.h ****         OVS_NONE, /**< & */
  97:../../libDaisy/src/per/adc.h ****         OVS_4,    /**< & */
  98:../../libDaisy/src/per/adc.h ****         OVS_8,    /**< & */
  99:../../libDaisy/src/per/adc.h ****         OVS_16,   /**< & */
 100:../../libDaisy/src/per/adc.h ****         OVS_32,   /**< & */
 101:../../libDaisy/src/per/adc.h ****         OVS_64,   /**< & */
 102:../../libDaisy/src/per/adc.h ****         OVS_128,  /**< & */
 103:../../libDaisy/src/per/adc.h ****         OVS_256,  /**< & */
 104:../../libDaisy/src/per/adc.h ****         OVS_512,  /**< & */
 105:../../libDaisy/src/per/adc.h ****         OVS_1024, /**< & */
 106:../../libDaisy/src/per/adc.h ****         OVS_LAST, /**< & */
 107:../../libDaisy/src/per/adc.h ****     };
 108:../../libDaisy/src/per/adc.h **** 
 109:../../libDaisy/src/per/adc.h ****     AdcHandle() {}
 110:../../libDaisy/src/per/adc.h ****     ~AdcHandle() {}
 152              		.loc 13 110 5 is_stmt 1 view .LVU39
 153              		.loc 13 110 5 is_stmt 0 view .LVU40
 154              	.LBE419:
 155              	.LBB420:
 156              	.LBI420:
 157              		.file 14 "../../libDaisy/src/hid/audio.h"
   1:../../libDaisy/src/hid/audio.h **** #ifndef DSY_AUDIO_H
   2:../../libDaisy/src/hid/audio.h **** #define DSY_AUDIO_H /**< & */
   3:../../libDaisy/src/hid/audio.h **** 
   4:../../libDaisy/src/hid/audio.h **** #include "per/sai.h"
   5:../../libDaisy/src/hid/audio.h **** 
   6:../../libDaisy/src/hid/audio.h **** namespace daisy
   7:../../libDaisy/src/hid/audio.h **** {
   8:../../libDaisy/src/hid/audio.h **** /** @brief Audio Engine Handle
   9:../../libDaisy/src/hid/audio.h ****  *  @ingroup audio 
  10:../../libDaisy/src/hid/audio.h ****  *  @details This class allows for higher level access to an audio engine.
  11:../../libDaisy/src/hid/audio.h ****  *           If you're using a SOM like the DaisySeed or DaisyPatchSM (or any 
  12:../../libDaisy/src/hid/audio.h ****  *            board that includes one of those objects) then the intialization
  13:../../libDaisy/src/hid/audio.h ****  *            is already taken  care of.
  14:../../libDaisy/src/hid/audio.h ****  *           If you're setting up your own custom hardware, or need to make changes
ARM GAS  C:\Users\CHIPVI~1\AppData\Local\Temp\ccjCx3Ca.s 			page 20


  15:../../libDaisy/src/hid/audio.h ****  *           you will have to take the following steps:
  16:../../libDaisy/src/hid/audio.h ****  *             1. Create and Initialize an SaiHandle or two depending on your requirements
  17:../../libDaisy/src/hid/audio.h ****  *             2. Initialize the Audio Handle with the desired settings and the Initialized SaiHand
  18:../../libDaisy/src/hid/audio.h ****  *             3. If the connected codec requires special configuration or initialization, do so
  19:../../libDaisy/src/hid/audio.h ****  *             4. Write a callback method using either the AudioCallback or the InterleavingAudioCa
  20:../../libDaisy/src/hid/audio.h ****  *             5. Start the Audio using one of the StartAudio function
  21:../../libDaisy/src/hid/audio.h ****  */
  22:../../libDaisy/src/hid/audio.h **** class AudioHandle
  23:../../libDaisy/src/hid/audio.h **** {
  24:../../libDaisy/src/hid/audio.h ****   public:
  25:../../libDaisy/src/hid/audio.h ****     /** Manually configurable details about the Audio Engine */
  26:../../libDaisy/src/hid/audio.h ****     /** TODO: Figure out how to get samplerate in here. */
  27:../../libDaisy/src/hid/audio.h ****     struct Config
  28:../../libDaisy/src/hid/audio.h ****     {
  29:../../libDaisy/src/hid/audio.h ****         /** number of samples to process per callback */
  30:../../libDaisy/src/hid/audio.h ****         size_t blocksize;
  31:../../libDaisy/src/hid/audio.h **** 
  32:../../libDaisy/src/hid/audio.h ****         /**< Sample rate of audio */
  33:../../libDaisy/src/hid/audio.h ****         SaiHandle::Config::SampleRate samplerate;
  34:../../libDaisy/src/hid/audio.h **** 
  35:../../libDaisy/src/hid/audio.h ****         /** factor for adjustment before and after callback for hardware that may have extra headro
  36:../../libDaisy/src/hid/audio.h ****         float postgain;
  37:../../libDaisy/src/hid/audio.h **** 
  38:../../libDaisy/src/hid/audio.h ****         /** factor for additional one-sided compensation to audio path for hardware that may
  39:../../libDaisy/src/hid/audio.h ****          *  have unequal input/output ranges
  40:../../libDaisy/src/hid/audio.h ****          */
  41:../../libDaisy/src/hid/audio.h ****         float output_compensation;
  42:../../libDaisy/src/hid/audio.h **** 
  43:../../libDaisy/src/hid/audio.h ****         /** Sets default values for config struct */
  44:../../libDaisy/src/hid/audio.h ****         Config()
  45:../../libDaisy/src/hid/audio.h ****         : blocksize(48),
  46:../../libDaisy/src/hid/audio.h ****           samplerate(SaiHandle::Config::SampleRate::SAI_48KHZ),
  47:../../libDaisy/src/hid/audio.h ****           postgain(1.f),
  48:../../libDaisy/src/hid/audio.h ****           output_compensation(1.f)
  49:../../libDaisy/src/hid/audio.h ****         {
  50:../../libDaisy/src/hid/audio.h ****         }
  51:../../libDaisy/src/hid/audio.h ****     };
  52:../../libDaisy/src/hid/audio.h **** 
  53:../../libDaisy/src/hid/audio.h ****     enum class Result
  54:../../libDaisy/src/hid/audio.h ****     {
  55:../../libDaisy/src/hid/audio.h ****         OK,
  56:../../libDaisy/src/hid/audio.h ****         ERR,
  57:../../libDaisy/src/hid/audio.h ****     };
  58:../../libDaisy/src/hid/audio.h **** 
  59:../../libDaisy/src/hid/audio.h ****     /** Non-Interleaving input buffer
  60:../../libDaisy/src/hid/audio.h ****      * Buffer arranged by float[chn][sample] 
  61:../../libDaisy/src/hid/audio.h ****      * const so that the user can't modify the input
  62:../../libDaisy/src/hid/audio.h ****      */
  63:../../libDaisy/src/hid/audio.h ****     typedef const float* const* InputBuffer;
  64:../../libDaisy/src/hid/audio.h **** 
  65:../../libDaisy/src/hid/audio.h ****     /** Non-Interleaving output buffer
  66:../../libDaisy/src/hid/audio.h ****      * Arranged by float[chn][sample] 
  67:../../libDaisy/src/hid/audio.h ****      */
  68:../../libDaisy/src/hid/audio.h ****     typedef float** OutputBuffer;
  69:../../libDaisy/src/hid/audio.h **** 
  70:../../libDaisy/src/hid/audio.h ****     /** Type for a Non-Interleaving audio callback 
  71:../../libDaisy/src/hid/audio.h ****      * Non-Interleaving audio callbacks in daisy will be of this type
ARM GAS  C:\Users\CHIPVI~1\AppData\Local\Temp\ccjCx3Ca.s 			page 21


  72:../../libDaisy/src/hid/audio.h ****      */
  73:../../libDaisy/src/hid/audio.h ****     typedef void (*AudioCallback)(InputBuffer  in,
  74:../../libDaisy/src/hid/audio.h ****                                   OutputBuffer out,
  75:../../libDaisy/src/hid/audio.h ****                                   size_t       size);
  76:../../libDaisy/src/hid/audio.h **** 
  77:../../libDaisy/src/hid/audio.h ****     /** Interleaving Input buffer
  78:../../libDaisy/src/hid/audio.h ****      ** audio is prepared as { L0, R0, L1, R1, . . . LN, RN }]
  79:../../libDaisy/src/hid/audio.h ****      ** this is const, as the user shouldn't modify it
  80:../../libDaisy/src/hid/audio.h ****     */
  81:../../libDaisy/src/hid/audio.h ****     typedef const float* InterleavingInputBuffer;
  82:../../libDaisy/src/hid/audio.h **** 
  83:../../libDaisy/src/hid/audio.h ****     /** Interleaving Output buffer 
  84:../../libDaisy/src/hid/audio.h ****      ** audio is prepared as { L0, R0, L1, R1, . . . LN, RN }
  85:../../libDaisy/src/hid/audio.h ****     */
  86:../../libDaisy/src/hid/audio.h ****     typedef float* InterleavingOutputBuffer;
  87:../../libDaisy/src/hid/audio.h **** 
  88:../../libDaisy/src/hid/audio.h ****     /** Interleaving Audio Callback 
  89:../../libDaisy/src/hid/audio.h ****      * Interleaving audio callbacks in daisy must be of this type
  90:../../libDaisy/src/hid/audio.h ****      */
  91:../../libDaisy/src/hid/audio.h ****     typedef void (*InterleavingAudioCallback)(InterleavingInputBuffer  in,
  92:../../libDaisy/src/hid/audio.h ****                                               InterleavingOutputBuffer out,
  93:../../libDaisy/src/hid/audio.h ****                                               size_t                   size);
  94:../../libDaisy/src/hid/audio.h **** 
  95:../../libDaisy/src/hid/audio.h ****     AudioHandle() : pimpl_(nullptr) {}
  96:../../libDaisy/src/hid/audio.h ****     ~AudioHandle() {}
 158              		.loc 14 96 5 is_stmt 1 view .LVU41
 159              		.loc 14 96 5 is_stmt 0 view .LVU42
 160              	.LBE420:
 161              	.LBE416:
 162              		.loc 1 36 18 view .LVU43
 163 0000 7047     		bx	lr
 164              		.cfi_endproc
 165              	.LFE2564:
 167              		.weak	_ZN5daisy8DaisyPodD1Ev
 168              		.thumb_set _ZN5daisy8DaisyPodD1Ev,_ZN5daisy8DaisyPodD2Ev
 169 0002 00BF     		.section	.text._ZN10FilterBankD2Ev,"axG",%progbits,_ZN10FilterBankD5Ev,comdat
 170              		.align	1
 171              		.p2align 2,,3
 172              		.weak	_ZN10FilterBankD2Ev
 173              		.syntax unified
 174              		.thumb
 175              		.thumb_func
 176              		.fpu fpv5-d16
 178              	_ZN10FilterBankD2Ev:
 179              	.LVL1:
 180              	.LFB5298:
 181              		.file 15 "FilterBank.h"
   1:FilterBank.h  **** #pragma once
   2:FilterBank.h  **** // FilterBank.h
   3:FilterBank.h  **** // Simple wrapper around DaisySP Svf for a low-pass filter with log frequency mapping.
   4:FilterBank.h  **** 
   5:FilterBank.h  **** #include "daisysp.h"
   6:FilterBank.h  **** #include <cmath>
   7:FilterBank.h  **** 
   8:FilterBank.h  **** class FilterBank
 182              		.loc 15 8 7 is_stmt 1 view -0
 183              		.cfi_startproc
ARM GAS  C:\Users\CHIPVI~1\AppData\Local\Temp\ccjCx3Ca.s 			page 22


 184              		@ args = 0, pretend = 0, frame = 0
 185              		@ frame_needed = 0, uses_anonymous_args = 0
 186              		@ link register save eliminated.
 187              	.LBB421:
 188              	.LBI421:
 189              		.file 16 "../../DaisySP/Source/Filters/svf.h"
   1:../../DaisySP/Source/Filters/svf.h **** /*
   2:../../DaisySP/Source/Filters/svf.h **** Copyright (c) 2020 Electrosmith, Corp
   3:../../DaisySP/Source/Filters/svf.h **** 
   4:../../DaisySP/Source/Filters/svf.h **** Use of this source code is governed by an MIT-style
   5:../../DaisySP/Source/Filters/svf.h **** license that can be found in the LICENSE file or at
   6:../../DaisySP/Source/Filters/svf.h **** https://opensource.org/licenses/MIT.
   7:../../DaisySP/Source/Filters/svf.h **** */
   8:../../DaisySP/Source/Filters/svf.h **** 
   9:../../DaisySP/Source/Filters/svf.h **** #pragma once
  10:../../DaisySP/Source/Filters/svf.h **** #ifndef DSY_SVF_H
  11:../../DaisySP/Source/Filters/svf.h **** #define DSY_SVF_H
  12:../../DaisySP/Source/Filters/svf.h **** 
  13:../../DaisySP/Source/Filters/svf.h **** namespace daisysp
  14:../../DaisySP/Source/Filters/svf.h **** {
  15:../../DaisySP/Source/Filters/svf.h **** /**      Double Sampled, Stable State Variable Filter
  16:../../DaisySP/Source/Filters/svf.h **** 
  17:../../DaisySP/Source/Filters/svf.h **** Credit to Andrew Simper from musicdsp.org
  18:../../DaisySP/Source/Filters/svf.h **** 
  19:../../DaisySP/Source/Filters/svf.h **** This is his "State Variable Filter (Double Sampled, Stable)"
  20:../../DaisySP/Source/Filters/svf.h **** 
  21:../../DaisySP/Source/Filters/svf.h **** Additional thanks to Laurent de Soras for stability limit, and 
  22:../../DaisySP/Source/Filters/svf.h **** Stefan Diedrichsen for the correct notch output
  23:../../DaisySP/Source/Filters/svf.h **** 
  24:../../DaisySP/Source/Filters/svf.h **** Ported by: Stephen Hensley
  25:../../DaisySP/Source/Filters/svf.h **** */
  26:../../DaisySP/Source/Filters/svf.h **** class Svf
  27:../../DaisySP/Source/Filters/svf.h **** {
  28:../../DaisySP/Source/Filters/svf.h ****   public:
  29:../../DaisySP/Source/Filters/svf.h ****     Svf() {}
  30:../../DaisySP/Source/Filters/svf.h ****     ~Svf() {}
 190              		.loc 16 30 5 view .LVU45
 191              		.loc 16 30 5 is_stmt 0 view .LVU46
 192              	.LBE421:
 193              		.loc 15 8 7 view .LVU47
 194 0000 7047     		bx	lr
 195              		.cfi_endproc
 196              	.LFE5298:
 198              		.weak	_ZN10FilterBankD1Ev
 199              		.thumb_set _ZN10FilterBankD1Ev,_ZN10FilterBankD2Ev
 200 0002 00BF     		.section	.text._Z13AudioCallbackPKPKfPPfj,"ax",%progbits
 201              		.align	1
 202              		.p2align 2,,3
 203              		.global	_Z13AudioCallbackPKPKfPPfj
 204              		.syntax unified
 205              		.thumb
 206              		.thumb_func
 207              		.fpu fpv5-d16
 209              	_Z13AudioCallbackPKPKfPPfj:
 210              	.LVL2:
 211              	.LFB4706:
 212              		.file 17 "spiral2.0.cpp"
ARM GAS  C:\Users\CHIPVI~1\AppData\Local\Temp\ccjCx3Ca.s 			page 23


   1:spiral2.0.cpp **** // spiral1.cpp
   2:spiral2.0.cpp **** // Spiral-1 -> Spiral-2: added Double Buffering (ping-pong snapshot).
   3:spiral2.0.cpp **** // Other behavior preserved (single-grain, Hann, global band-pass filter, mode UI).
   4:spiral2.0.cpp **** 
   5:spiral2.0.cpp **** #include "daisy_pod.h"
   6:spiral2.0.cpp **** #include "daisysp.h"
   7:spiral2.0.cpp **** #include <math.h>
   8:spiral2.0.cpp **** #include <stdint.h>
   9:spiral2.0.cpp **** #include <string.h>
  10:spiral2.0.cpp **** 
  11:spiral2.0.cpp **** #include "FilterBank.h"
  12:spiral2.0.cpp **** 
  13:spiral2.0.cpp **** using namespace daisy;
  14:spiral2.0.cpp **** using namespace daisysp;
  15:spiral2.0.cpp **** 
  16:spiral2.0.cpp **** // ----------------- project constants -----------------
  17:spiral2.0.cpp **** static constexpr uint32_t SAMPLE_RATE_HZ = 48000u;
  18:spiral2.0.cpp **** static constexpr uint32_t MAX_SECONDS    = 4u;
  19:spiral2.0.cpp **** static constexpr uint32_t BUFFER_SIZE    = SAMPLE_RATE_HZ * MAX_SECONDS; // 192000
  20:spiral2.0.cpp **** 
  21:spiral2.0.cpp **** // --- Mix & UI state ---
  22:spiral2.0.cpp **** static float g_level = 0.5f;        // 0=dry, 1=wet
  23:spiral2.0.cpp **** // thread-safe publish for filter knob value
  24:spiral2.0.cpp **** volatile float filtCut_shared = 0.5f;   // knob value (0..1) pushed to audio thread
  25:spiral2.0.cpp **** static float g_level_sm = 0.5f;
  26:spiral2.0.cpp **** const float LEVEL_SMOOTH_ALPHA = 0.08f;
  27:spiral2.0.cpp **** 
  28:spiral2.0.cpp **** static bool  g_level_edit = false;  // ON: knob2 edits wet/dry (LED blue)
  29:spiral2.0.cpp **** static bool  editEffectsMode = false; // ON: knob1 edits filter cutoff (LED green)
  30:spiral2.0.cpp **** 
  31:spiral2.0.cpp **** // ----------------- hardware -----------------
  32:spiral2.0.cpp **** DaisyPod pod;
  33:spiral2.0.cpp **** 
  34:spiral2.0.cpp **** // ----------------- DOUBLE BUFFERS (stereo) -----------------
  35:spiral2.0.cpp **** // Ping-pong buffers in SDRAM (two separate full-size buffers)
  36:spiral2.0.cpp **** float DSY_SDRAM_BSS bufferA_L[BUFFER_SIZE];
  37:spiral2.0.cpp **** float DSY_SDRAM_BSS bufferA_R[BUFFER_SIZE];
  38:spiral2.0.cpp **** float DSY_SDRAM_BSS bufferB_L[BUFFER_SIZE];
  39:spiral2.0.cpp **** float DSY_SDRAM_BSS bufferB_R[BUFFER_SIZE];
  40:spiral2.0.cpp **** 
  41:spiral2.0.cpp **** // which buffer is currently being written into (true = A, false = B)
  42:spiral2.0.cpp **** volatile bool useBufferA = true;
  43:spiral2.0.cpp **** 
  44:spiral2.0.cpp **** // ring head inside the active buffer
  45:spiral2.0.cpp **** volatile uint32_t writeHead = 0;
  46:spiral2.0.cpp **** 
  47:spiral2.0.cpp **** // flag indicating we have at least one completed (inactive) buffer ready for reading
  48:spiral2.0.cpp **** volatile bool inactiveBufferReady = false;
  49:spiral2.0.cpp **** 
  50:spiral2.0.cpp **** // index of the last-sample (tail) in the inactive snapshot (always BUFFER_SIZE-1 after fill)
  51:spiral2.0.cpp **** uint32_t inactiveTailIndex = 0;
  52:spiral2.0.cpp **** 
  53:spiral2.0.cpp **** // ----------------- profiling via DWT -----------------
  54:spiral2.0.cpp **** #include "core_cm7.h"
  55:spiral2.0.cpp **** volatile uint32_t audio_max_cycles = 0;
  56:spiral2.0.cpp **** volatile uint32_t audio_min_cycles = UINT32_MAX;
  57:spiral2.0.cpp **** volatile uint32_t audio_last_cycles = 0;
ARM GAS  C:\Users\CHIPVI~1\AppData\Local\Temp\ccjCx3Ca.s 			page 24


  58:spiral2.0.cpp **** static inline void dwt_init(void) {
  59:spiral2.0.cpp ****     CoreDebug->DEMCR |= CoreDebug_DEMCR_TRCENA_Msk;
  60:spiral2.0.cpp ****     DWT->CYCCNT = 0;
  61:spiral2.0.cpp ****     DWT->CTRL |= DWT_CTRL_CYCCNTENA_Msk;
  62:spiral2.0.cpp **** }
  63:spiral2.0.cpp **** static inline uint32_t dwt_cycles(void) { return DWT->CYCCNT; }
  64:spiral2.0.cpp **** 
  65:spiral2.0.cpp **** // ----------------- grain struct -----------------
  66:spiral2.0.cpp **** struct Grain {
  67:spiral2.0.cpp ****     bool    active = false;
  68:spiral2.0.cpp ****     uint32_t length = 0;   // samples
  69:spiral2.0.cpp ****     float   pos = 0.f;     // fractional read index
  70:spiral2.0.cpp ****     float   step = 1.f;    // playback speed
  71:spiral2.0.cpp ****     uint32_t phase = 0;    // current sample index within grain
  72:spiral2.0.cpp ****     float   gain = 1.0f;
  73:spiral2.0.cpp ****     float   pan = 0.5f;
  74:spiral2.0.cpp ****     uint32_t startSample = 0;
  75:spiral2.0.cpp ****     float   fixedStartPos = 0.f;  // Store fixed start position
  76:spiral2.0.cpp **** } grain;
  77:spiral2.0.cpp **** 
  78:spiral2.0.cpp **** // ----------------- single-grain helpers -----------------
  79:spiral2.0.cpp **** static inline void readStereoLinear(const float* bufL, const float* bufR,
  80:spiral2.0.cpp ****                                     uint32_t bufSize, float pos,
  81:spiral2.0.cpp ****                                     float &outL, float &outR)
  82:spiral2.0.cpp **** {
  83:spiral2.0.cpp ****     float p = pos;
  84:spiral2.0.cpp ****     // wrap to [0,bufSize)
  85:spiral2.0.cpp ****     if(p >= (float)bufSize) p -= (float)bufSize * floorf(p / (float)bufSize);
  86:spiral2.0.cpp ****     else if(p < 0.f) p += (float)bufSize * (1 + (uint32_t)(-p / bufSize));
  87:spiral2.0.cpp **** 
  88:spiral2.0.cpp ****     uint32_t idx = (uint32_t)p;
  89:spiral2.0.cpp ****     uint32_t idx1 = idx + 1;
  90:spiral2.0.cpp ****     if(idx1 >= bufSize) idx1 -= bufSize;
  91:spiral2.0.cpp ****     float frac = p - (float)idx;
  92:spiral2.0.cpp **** 
  93:spiral2.0.cpp ****     float s0L = bufL[idx];
  94:spiral2.0.cpp ****     float s1L = bufL[idx1];
  95:spiral2.0.cpp ****     float s0R = bufR[idx];
  96:spiral2.0.cpp ****     float s1R = bufR[idx1];
  97:spiral2.0.cpp **** 
  98:spiral2.0.cpp ****     outL = s0L + frac * (s1L - s0L);
  99:spiral2.0.cpp ****     outR = s0R + frac * (s1R - s0R);
 100:spiral2.0.cpp **** }
 101:spiral2.0.cpp **** 
 102:spiral2.0.cpp **** // Hann window
 103:spiral2.0.cpp **** static inline float hann_val(uint32_t n, uint32_t N)
 104:spiral2.0.cpp **** {
 105:spiral2.0.cpp ****     if(N <= 1) return 1.0f;
 106:spiral2.0.cpp ****     float x = (2.0f * M_PI * (float)n) / (float)(N - 1);
 107:spiral2.0.cpp ****     return 0.5f * (1.0f - cosf(x));
 108:spiral2.0.cpp **** }
 109:spiral2.0.cpp **** 
 110:spiral2.0.cpp **** void triggerGrain(uint32_t startSample, uint32_t lengthSamples, float pitchRatio,
 111:spiral2.0.cpp ****                   float gain = 1.0f, float pan = 0.5f)
 112:spiral2.0.cpp **** {
 113:spiral2.0.cpp ****     if(lengthSamples < 2) return;
 114:spiral2.0.cpp ****     grain.active = true;
ARM GAS  C:\Users\CHIPVI~1\AppData\Local\Temp\ccjCx3Ca.s 			page 25


 115:spiral2.0.cpp ****     grain.length = lengthSamples;
 116:spiral2.0.cpp ****     // store start relative to the inactive snapshot buffer indexing
 117:spiral2.0.cpp ****     grain.fixedStartPos = (float)startSample;
 118:spiral2.0.cpp ****     grain.pos = grain.fixedStartPos;
 119:spiral2.0.cpp ****     grain.step = pitchRatio;
 120:spiral2.0.cpp ****     grain.phase = 0;
 121:spiral2.0.cpp ****     grain.gain = gain;
 122:spiral2.0.cpp ****     grain.pan = pan;
 123:spiral2.0.cpp ****     grain.startSample = startSample;
 124:spiral2.0.cpp **** }
 125:spiral2.0.cpp **** 
 126:spiral2.0.cpp **** // ----------------- global band-pass filter (stereo) -----------------
 127:spiral2.0.cpp **** FilterBank filterL;
 128:spiral2.0.cpp **** FilterBank filterR;
 129:spiral2.0.cpp **** 
 130:spiral2.0.cpp **** // ----------------- UI / buffer length -----------------
 131:spiral2.0.cpp **** uint8_t bufferLengthIndex = 2; // 0:900ms, 1:2000ms, 2:4000ms
 132:spiral2.0.cpp **** const uint32_t bufferLengthMsTable[3] = {900, 2000, 4000};
 133:spiral2.0.cpp **** uint32_t currentBufferLengthMs = 4000;
 134:spiral2.0.cpp **** 
 135:spiral2.0.cpp **** // Button long-press state
 136:spiral2.0.cpp **** uint32_t btn1PressStartMs = 0;
 137:spiral2.0.cpp **** bool     btn1LongFired    = false;
 138:spiral2.0.cpp **** const uint32_t BTN1_HOLD_MS = 800; // ms
 139:spiral2.0.cpp **** 
 140:spiral2.0.cpp **** // ----------------- parameter smoothing -----------------
 141:spiral2.0.cpp **** static float filtCut_sm    = 0.5f; // normalized knob value for filter
 142:spiral2.0.cpp **** static const float SMOOTH_ALPHA = 0.06f; // 0..1, smaller = slower smoothing
 143:spiral2.0.cpp **** 
 144:spiral2.0.cpp **** // ----------------- audio callback -----------------
 145:spiral2.0.cpp **** void AudioCallback(AudioHandle::InputBuffer  in,
 146:spiral2.0.cpp ****                    AudioHandle::OutputBuffer out,
 147:spiral2.0.cpp ****                    size_t                    size)
 148:spiral2.0.cpp **** {
 213              		.loc 17 148 1 is_stmt 1 view -0
 214              		.cfi_startproc
 215              		@ args = 0, pretend = 0, frame = 32
 216              		@ frame_needed = 0, uses_anonymous_args = 0
 149:spiral2.0.cpp ****     uint32_t start_cycles = dwt_cycles();
 217              		.loc 17 149 5 view .LVU49
 218              	.LBB448:
 219              	.LBI448:
  63:spiral2.0.cpp **** 
 220              		.loc 17 63 24 view .LVU50
 221              	.LBB449:
  63:spiral2.0.cpp **** 
 222              		.loc 17 63 43 view .LVU51
 223              	.LBE449:
 224              	.LBE448:
 148:spiral2.0.cpp ****     uint32_t start_cycles = dwt_cycles();
 225              		.loc 17 148 1 is_stmt 0 view .LVU52
 226 0000 2DE9F04F 		push	{r4, r5, r6, r7, r8, r9, r10, fp, lr}
 227              		.cfi_def_cfa_offset 36
 228              		.cfi_offset 4, -36
 229              		.cfi_offset 5, -32
 230              		.cfi_offset 6, -28
 231              		.cfi_offset 7, -24
ARM GAS  C:\Users\CHIPVI~1\AppData\Local\Temp\ccjCx3Ca.s 			page 26


 232              		.cfi_offset 8, -20
 233              		.cfi_offset 9, -16
 234              		.cfi_offset 10, -12
 235              		.cfi_offset 11, -8
 236              		.cfi_offset 14, -4
 237              	.LBB453:
 238              	.LBB450:
  63:spiral2.0.cpp **** 
 239              		.loc 17 63 55 view .LVU53
 240 0004 C64C     		ldr	r4, .L64+8
 241              	.LBE450:
 242              	.LBE453:
 148:spiral2.0.cpp ****     uint32_t start_cycles = dwt_cycles();
 243              		.loc 17 148 1 view .LVU54
 244 0006 8246     		mov	r10, r0
 150:spiral2.0.cpp **** 
 151:spiral2.0.cpp ****     // Apply latest filter cutoff once per block (safe publish)
 152:spiral2.0.cpp ****     static float last_applied_filt = -1.0f;
 153:spiral2.0.cpp ****     float newf = filtCut_shared;
 245              		.loc 17 153 18 view .LVU55
 246 0008 C64B     		ldr	r3, .L64+12
 148:spiral2.0.cpp ****     uint32_t start_cycles = dwt_cycles();
 247              		.loc 17 148 1 view .LVU56
 248 000a 8B46     		mov	fp, r1
 249              	.LBB454:
 250              	.LBB451:
  63:spiral2.0.cpp **** 
 251              		.loc 17 63 55 view .LVU57
 252 000c 6468     		ldr	r4, [r4, #4]
 253              	.LBE451:
 254              	.LBE454:
 154:spiral2.0.cpp ****     if(fabsf(newf - last_applied_filt) > 1e-7f)
 255              		.loc 17 154 5 view .LVU58
 256 000e 9FEDC67A 		vldr.32	s14, .L64+16
 148:spiral2.0.cpp ****     uint32_t start_cycles = dwt_cycles();
 257              		.loc 17 148 1 view .LVU59
 258 0012 2DED068B 		vpush.64	{d8, d9, d10}
 259              		.cfi_def_cfa_offset 60
 260              		.cfi_offset 80, -60
 261              		.cfi_offset 81, -56
 262              		.cfi_offset 82, -52
 263              		.cfi_offset 83, -48
 264              		.cfi_offset 84, -44
 265              		.cfi_offset 85, -40
 266 0016 89B0     		sub	sp, sp, #36
 267              		.cfi_def_cfa_offset 96
 153:spiral2.0.cpp ****     if(fabsf(newf - last_applied_filt) > 1e-7f)
 268              		.loc 17 153 18 view .LVU60
 269 0018 93ED008A 		vldr.32	s16, [r3]
 270              	.LBB455:
 271              	.LBB452:
  63:spiral2.0.cpp **** 
 272              		.loc 17 63 55 view .LVU61
 273 001c 0794     		str	r4, [sp, #28]
 274              	.LVL3:
  63:spiral2.0.cpp **** 
 275              		.loc 17 63 55 view .LVU62
ARM GAS  C:\Users\CHIPVI~1\AppData\Local\Temp\ccjCx3Ca.s 			page 27


 276              	.LBE452:
 277              	.LBE455:
 152:spiral2.0.cpp ****     float newf = filtCut_shared;
 278              		.loc 17 152 5 is_stmt 1 view .LVU63
 153:spiral2.0.cpp ****     if(fabsf(newf - last_applied_filt) > 1e-7f)
 279              		.loc 17 153 5 view .LVU64
 280              		.loc 17 154 5 view .LVU65
 281              		.loc 17 154 19 is_stmt 0 view .LVU66
 282 001e C34C     		ldr	r4, .L64+20
 283              	.LVL4:
 148:spiral2.0.cpp ****     uint32_t start_cycles = dwt_cycles();
 284              		.loc 17 148 1 view .LVU67
 285 0020 0292     		str	r2, [sp, #8]
 286              		.loc 17 154 19 view .LVU68
 287 0022 D4ED007A 		vldr.32	s15, [r4]
 288 0026 78EE677A 		vsub.f32	s15, s16, s15
 289              		.loc 17 154 13 view .LVU69
 290 002a F0EEE77A 		vabs.f32	s15, s15
 291              		.loc 17 154 5 view .LVU70
 292 002e F4EEC77A 		vcmpe.f32	s15, s14
 293 0032 F1EE10FA 		vmrs	APSR_nzcv, FPSCR
 294 0036 00F3BA81 		bgt	.L62
 295              	.LVL5:
 296              	.L5:
 155:spiral2.0.cpp ****     {
 156:spiral2.0.cpp ****         filterL.SetFreqFromKnob(newf, 40.0f, 4000.0f);
 157:spiral2.0.cpp ****         filterR.SetFreqFromKnob(newf, 40.0f, 4000.0f);
 158:spiral2.0.cpp ****         last_applied_filt = newf;
 159:spiral2.0.cpp ****     }
 160:spiral2.0.cpp **** 
 161:spiral2.0.cpp ****     // Select active/inactive buffer pointers
 162:spiral2.0.cpp ****     float* writeBufL  = useBufferA ? bufferA_L : bufferB_L;
 297              		.loc 17 162 5 is_stmt 1 view .LVU71
 298              		.loc 17 162 25 is_stmt 0 view .LVU72
 299 003a BD4E     		ldr	r6, .L64+24
 300              		.loc 17 162 50 view .LVU73
 301 003c BD4D     		ldr	r5, .L64+28
 302              		.loc 17 162 25 view .LVU74
 303 003e 3278     		ldrb	r2, [r6]	@ zero_extendqisi2
 304              		.loc 17 162 50 view .LVU75
 305 0040 BD4B     		ldr	r3, .L64+32
 163:spiral2.0.cpp ****     float* writeBufR  = useBufferA ? bufferA_R : bufferB_R;
 306              		.loc 17 163 50 view .LVU76
 307 0042 BE49     		ldr	r1, .L64+36
 162:spiral2.0.cpp ****     float* writeBufR  = useBufferA ? bufferA_R : bufferB_R;
 308              		.loc 17 162 50 view .LVU77
 309 0044 002A     		cmp	r2, #0
 310 0046 14BF     		ite	ne
 311 0048 2A46     		movne	r2, r5
 312 004a 1A46     		moveq	r2, r3
 313              		.loc 17 163 50 view .LVU78
 314 004c BC48     		ldr	r0, .L64+40
 162:spiral2.0.cpp ****     float* writeBufR  = useBufferA ? bufferA_R : bufferB_R;
 315              		.loc 17 162 50 view .LVU79
 316 004e 0192     		str	r2, [sp, #4]
 317              	.LVL6:
 318              		.loc 17 163 5 is_stmt 1 view .LVU80
ARM GAS  C:\Users\CHIPVI~1\AppData\Local\Temp\ccjCx3Ca.s 			page 28


 319              		.loc 17 163 25 is_stmt 0 view .LVU81
 320 0050 3278     		ldrb	r2, [r6]	@ zero_extendqisi2
 321              	.LVL7:
 322              		.loc 17 163 50 view .LVU82
 323 0052 002A     		cmp	r2, #0
 324 0054 14BF     		ite	ne
 325 0056 0A46     		movne	r2, r1
 326 0058 0246     		moveq	r2, r0
 327 005a 0092     		str	r2, [sp]
 328              	.LVL8:
 164:spiral2.0.cpp ****     float* readBufL   = useBufferA ? bufferB_L : bufferA_L; // read from the other (inactive) buffe
 329              		.loc 17 164 5 is_stmt 1 view .LVU83
 330              		.loc 17 164 25 is_stmt 0 view .LVU84
 331 005c 3278     		ldrb	r2, [r6]	@ zero_extendqisi2
 332              	.LVL9:
 333              		.loc 17 164 50 view .LVU85
 334 005e 002A     		cmp	r2, #0
 335 0060 08BF     		it	eq
 336 0062 2B46     		moveq	r3, r5
 337 0064 0593     		str	r3, [sp, #20]
 338              	.LVL10:
 165:spiral2.0.cpp ****     float* readBufR   = useBufferA ? bufferB_R : bufferA_R;
 339              		.loc 17 165 5 is_stmt 1 view .LVU86
 340              		.loc 17 165 25 is_stmt 0 view .LVU87
 341 0066 3378     		ldrb	r3, [r6]	@ zero_extendqisi2
 342              	.LVL11:
 343              		.loc 17 165 50 view .LVU88
 344 0068 002B     		cmp	r3, #0
 345 006a 08BF     		it	eq
 346 006c 0846     		moveq	r0, r1
 166:spiral2.0.cpp **** 
 167:spiral2.0.cpp ****     uint32_t w = writeHead;
 347              		.loc 17 167 18 view .LVU89
 348 006e B54B     		ldr	r3, .L64+44
 349 0070 1D68     		ldr	r5, [r3]
 350              	.LBB456:
 168:spiral2.0.cpp **** 
 169:spiral2.0.cpp ****     for(size_t i = 0; i < size; i++)
 351              		.loc 17 169 25 view .LVU90
 352 0072 029B     		ldr	r3, [sp, #8]
 353              	.LBE456:
 165:spiral2.0.cpp **** 
 354              		.loc 17 165 50 view .LVU91
 355 0074 0690     		str	r0, [sp, #24]
 356              	.LVL12:
 167:spiral2.0.cpp **** 
 357              		.loc 17 167 5 is_stmt 1 view .LVU92
 358              		.loc 17 169 5 view .LVU93
 359              	.LBB511:
 360              		.loc 17 169 25 view .LVU94
 361 0076 002B     		cmp	r3, #0
 362 0078 00F03481 		beq	.L12
 363 007c B24B     		ldr	r3, .L64+48
 364              		.loc 17 169 16 is_stmt 0 view .LVU95
 365 007e 0024     		movs	r4, #0
 366 0080 DFF8EC82 		ldr	r8, .L64+88
 367 0084 0493     		str	r3, [sp, #16]
ARM GAS  C:\Users\CHIPVI~1\AppData\Local\Temp\ccjCx3Ca.s 			page 29


 368 0086 B14B     		ldr	r3, .L64+52
 369 0088 DFF8E892 		ldr	r9, .L64+92
 370 008c 0393     		str	r3, [sp, #12]
 371 008e 2EE0     		b	.L32
 372              	.LVL13:
 373              	.L46:
 374              	.LBB457:
 170:spiral2.0.cpp ****     {
 171:spiral2.0.cpp ****         // --- write input into active buffer ---
 172:spiral2.0.cpp ****         writeBufL[w] = in[0][i];
 173:spiral2.0.cpp ****         writeBufR[w] = in[1][i];
 174:spiral2.0.cpp **** 
 175:spiral2.0.cpp ****         // Advance write head
 176:spiral2.0.cpp ****         if(++w >= BUFFER_SIZE)
 177:spiral2.0.cpp ****         {
 178:spiral2.0.cpp ****             // buffer full -> snapshot completed, swap buffers
 179:spiral2.0.cpp ****             w = 0;
 180:spiral2.0.cpp ****             useBufferA = !useBufferA; // swap active buffer
 181:spiral2.0.cpp **** 
 182:spiral2.0.cpp ****             // after swap, inactiveBufferReady = true (we now have a completed buffer to read)
 183:spiral2.0.cpp ****             inactiveBufferReady = true;
 184:spiral2.0.cpp ****             inactiveTailIndex = BUFFER_SIZE - 1;
 185:spiral2.0.cpp **** 
 186:spiral2.0.cpp ****             // update buffer pointers for subsequent samples (within same callback)
 187:spiral2.0.cpp ****             writeBufL  = useBufferA ? bufferA_L : bufferB_L;
 188:spiral2.0.cpp ****             writeBufR  = useBufferA ? bufferA_R : bufferB_R;
 189:spiral2.0.cpp ****             readBufL   = useBufferA ? bufferB_L : bufferA_L;
 190:spiral2.0.cpp ****             readBufR   = useBufferA ? bufferB_R : bufferA_R;
 191:spiral2.0.cpp ****         }
 192:spiral2.0.cpp **** 
 193:spiral2.0.cpp ****         float dryL = in[0][i];
 194:spiral2.0.cpp ****         float dryR = in[1][i];
 195:spiral2.0.cpp **** 
 196:spiral2.0.cpp ****         float wetL = 0.0f;
 197:spiral2.0.cpp ****         float wetR = 0.0f;
 375              		.loc 17 197 15 view .LVU96
 376 0090 9FEDAF0A 		vldr.32	s0, .L64+56
 196:spiral2.0.cpp ****         float wetR = 0.0f;
 377              		.loc 17 196 15 view .LVU97
 378 0094 B0EE406A 		vmov.f32	s12, s0
 379              	.LVL14:
 380              	.L17:
 198:spiral2.0.cpp **** 
 199:spiral2.0.cpp ****         // --- grain from inactive snapshot buffer (only valid if we've captured at least one snaps
 200:spiral2.0.cpp ****         if(grain.active && inactiveBufferReady)
 201:spiral2.0.cpp ****         {
 202:spiral2.0.cpp ****             float sL, sR;
 203:spiral2.0.cpp ****             readStereoLinear(readBufL, readBufR, BUFFER_SIZE, grain.pos, sL, sR);
 204:spiral2.0.cpp **** 
 205:spiral2.0.cpp ****             float env = hann_val(grain.phase, grain.length);
 206:spiral2.0.cpp **** 
 207:spiral2.0.cpp ****             float gL = sqrtf(1.0f - grain.pan);
 208:spiral2.0.cpp ****             float gR = sqrtf(grain.pan);
 209:spiral2.0.cpp **** 
 210:spiral2.0.cpp ****             wetL += sL * env * grain.gain * gL;
 211:spiral2.0.cpp ****             wetR += sR * env * grain.gain * gR;
 212:spiral2.0.cpp **** 
ARM GAS  C:\Users\CHIPVI~1\AppData\Local\Temp\ccjCx3Ca.s 			page 30


 213:spiral2.0.cpp ****             // advance pos using fixedStartPos base (so grain reads are consistent)
 214:spiral2.0.cpp ****             grain.pos = grain.fixedStartPos + (float)grain.phase * grain.step;
 215:spiral2.0.cpp ****             if(grain.pos >= (float)BUFFER_SIZE)
 216:spiral2.0.cpp ****                 grain.pos -= (float)BUFFER_SIZE; // wrap
 217:spiral2.0.cpp **** 
 218:spiral2.0.cpp ****             grain.phase++;
 219:spiral2.0.cpp ****             if(grain.phase >= grain.length)
 220:spiral2.0.cpp ****             {
 221:spiral2.0.cpp ****                 grain.active = false;
 222:spiral2.0.cpp ****             }
 223:spiral2.0.cpp ****         }
 224:spiral2.0.cpp **** 
 225:spiral2.0.cpp ****         // Mix dry/wet
 226:spiral2.0.cpp ****         float mixL = (1.0f - g_level) * dryL + g_level * wetL;
 381              		.loc 17 226 9 is_stmt 1 discriminator 2 view .LVU98
 382              		.loc 17 226 28 is_stmt 0 discriminator 2 view .LVU99
 383 0098 B7EE007A 		vmov.f32	s14, #1.0e+0
 384 009c D9ED006A 		vldr.32	s13, [r9]
 385              	.LBB458:
 386              	.LBB459:
   9:FilterBank.h  **** {
  10:FilterBank.h  ****   public:
  11:FilterBank.h  ****     FilterBank() : freq_(1000.0f) {}
  12:FilterBank.h  **** 
  13:FilterBank.h  ****     void Init(float sampleRate)
  14:FilterBank.h  ****     {
  15:FilterBank.h  ****         filt_.Init(sampleRate);
  16:FilterBank.h  ****         filt_.SetRes(0.0f); // Very low for pure rolloff, no peak
  17:FilterBank.h  ****         freq_ = 1000.0f;
  18:FilterBank.h  ****     }
  19:FilterBank.h  **** 
  20:FilterBank.h  ****     // knobVal in 0..1 -> freq log scaled from minHz..maxHz
  21:FilterBank.h  ****     void SetFreqFromKnob(float knobVal, float minHz = 40.0f, float maxHz = 4000.0f)
  22:FilterBank.h  ****     {
  23:FilterBank.h  ****         if(knobVal < 0.f) knobVal = 0.f;
  24:FilterBank.h  ****         if(knobVal > 1.f) knobVal = 1.f;
  25:FilterBank.h  ****         float logMin = log10f(minHz);
  26:FilterBank.h  ****         float logMax = log10f(maxHz);
  27:FilterBank.h  ****         float logF   = logMin + knobVal * (logMax - logMin);
  28:FilterBank.h  ****         freq_ = powf(10.0f, logF);
  29:FilterBank.h  ****         filt_.SetFreq(freq_);
  30:FilterBank.h  ****     }
  31:FilterBank.h  **** 
  32:FilterBank.h  ****     // set resonance (Q style). Keep low for smooth rolloff
  33:FilterBank.h  ****     void SetRes(float r) { 
  34:FilterBank.h  ****         if(r < 0.0f) r = 0.0f;
  35:FilterBank.h  ****         if(r > 0.3f) r = 0.3f;  // Cap at low value to prevent peaks
  36:FilterBank.h  ****         filt_.SetRes(r); 
  37:FilterBank.h  ****     }
  38:FilterBank.h  **** 
  39:FilterBank.h  ****     // process single sample (call Process before reading Low())
  40:FilterBank.h  ****     void Process(float in)
  41:FilterBank.h  ****     {
  42:FilterBank.h  ****         filt_.Process(in);
 387              		.loc 15 42 22 discriminator 2 view .LVU100
 388 00a0 A948     		ldr	r0, .L64+48
 389              	.LBE459:
ARM GAS  C:\Users\CHIPVI~1\AppData\Local\Temp\ccjCx3Ca.s 			page 31


 390              	.LBE458:
 391              	.LBE457:
 169:spiral2.0.cpp ****     {
 392              		.loc 17 169 5 discriminator 2 view .LVU101
 393 00a2 0134     		adds	r4, r4, #1
 394              	.LVL15:
 395              	.LBB505:
 227:spiral2.0.cpp ****         float mixR = (1.0f - g_level) * dryR + g_level * wetR;
 396              		.loc 17 227 56 discriminator 2 view .LVU102
 397 00a4 66EE807A 		vmul.f32	s15, s13, s0
 226:spiral2.0.cpp ****         float mixR = (1.0f - g_level) * dryR + g_level * wetR;
 398              		.loc 17 226 28 discriminator 2 view .LVU103
 399 00a8 37EE667A 		vsub.f32	s14, s14, s13
 226:spiral2.0.cpp ****         float mixR = (1.0f - g_level) * dryR + g_level * wetR;
 400              		.loc 17 226 56 discriminator 2 view .LVU104
 401 00ac 26EE860A 		vmul.f32	s0, s13, s12
 402              	.LVL16:
 403              		.loc 17 227 9 is_stmt 1 discriminator 2 view .LVU105
 404              		.loc 17 227 15 is_stmt 0 discriminator 2 view .LVU106
 405 00b0 E8EE877A 		vfma.f32	s15, s17, s14
 406              	.LBB462:
 407              	.LBB460:
 408              		.loc 15 42 22 discriminator 2 view .LVU107
 409 00b4 A7EE080A 		vfma.f32	s0, s14, s16
 410              	.LVL17:
 411              		.loc 15 42 22 discriminator 2 view .LVU108
 412              	.LBE460:
 413              	.LBE462:
 414              		.loc 17 227 15 discriminator 2 view .LVU109
 415 00b8 B0EE678A 		vmov.f32	s16, s15
 416              	.LVL18:
 228:spiral2.0.cpp **** 
 229:spiral2.0.cpp ****         // Global band-pass filter (stereo)
 230:spiral2.0.cpp ****         filterL.Process(mixL);
 417              		.loc 17 230 9 is_stmt 1 discriminator 2 view .LVU110
 418              	.LBB463:
 419              	.LBI458:
  40:FilterBank.h  ****     {
 420              		.loc 15 40 10 discriminator 2 view .LVU111
 421              	.LBB461:
 422              		.loc 15 42 9 discriminator 2 view .LVU112
 423              		.loc 15 42 22 is_stmt 0 discriminator 2 view .LVU113
 424 00bc FFF7FEFF 		bl	_ZN7daisysp3Svf7ProcessEf
 425              	.LVL19:
 426              		.loc 15 42 22 discriminator 2 view .LVU114
 427              	.LBE461:
 428              	.LBE463:
 231:spiral2.0.cpp ****         float filtL = filterL.Band();
 429              		.loc 17 231 9 is_stmt 1 discriminator 2 view .LVU115
 430              	.LBB464:
 431              	.LBI464:
  43:FilterBank.h  ****     }
  44:FilterBank.h  **** 
  45:FilterBank.h  ****     // return low-pass output
  46:FilterBank.h  ****     float Low() { return filt_.Low(); }
  47:FilterBank.h  **** 
  48:FilterBank.h  ****     // For compatibility, redirect Band() calls to Low()
ARM GAS  C:\Users\CHIPVI~1\AppData\Local\Temp\ccjCx3Ca.s 			page 32


  49:FilterBank.h  ****     float Band() { return filt_.Low(); }
 432              		.loc 15 49 11 discriminator 2 view .LVU116
 433              	.LBE464:
 434              	.LBE505:
 435              	.LBE511:
 436              		.loc 15 49 20 discriminator 2 view .LVU117
 437              	.LBB512:
 438              	.LBB506:
 439              	.LBB469:
 440              	.LBB465:
 441              	.LBI465:
  31:../../DaisySP/Source/Filters/svf.h ****     /** Initializes the filter
  32:../../DaisySP/Source/Filters/svf.h ****         float sample_rate - sample rate of the audio engine being run, and the frequency that the P
  33:../../DaisySP/Source/Filters/svf.h ****     */
  34:../../DaisySP/Source/Filters/svf.h ****     void Init(float sample_rate);
  35:../../DaisySP/Source/Filters/svf.h **** 
  36:../../DaisySP/Source/Filters/svf.h **** 
  37:../../DaisySP/Source/Filters/svf.h ****     /** 
  38:../../DaisySP/Source/Filters/svf.h ****         Process the input signal, updating all of the outputs.
  39:../../DaisySP/Source/Filters/svf.h ****     */
  40:../../DaisySP/Source/Filters/svf.h ****     void Process(float in);
  41:../../DaisySP/Source/Filters/svf.h **** 
  42:../../DaisySP/Source/Filters/svf.h **** 
  43:../../DaisySP/Source/Filters/svf.h ****     /** sets the frequency of the cutoff frequency. 
  44:../../DaisySP/Source/Filters/svf.h ****         f must be between 0.0 and sample_rate / 3
  45:../../DaisySP/Source/Filters/svf.h ****     */
  46:../../DaisySP/Source/Filters/svf.h ****     void SetFreq(float f);
  47:../../DaisySP/Source/Filters/svf.h **** 
  48:../../DaisySP/Source/Filters/svf.h ****     /** sets the resonance of the filter.
  49:../../DaisySP/Source/Filters/svf.h ****         Must be between 0.0 and 1.0 to ensure stability.
  50:../../DaisySP/Source/Filters/svf.h ****     */
  51:../../DaisySP/Source/Filters/svf.h ****     void SetRes(float r);
  52:../../DaisySP/Source/Filters/svf.h **** 
  53:../../DaisySP/Source/Filters/svf.h ****     /** sets the drive of the filter 
  54:../../DaisySP/Source/Filters/svf.h ****         affects the response of the resonance of the filter
  55:../../DaisySP/Source/Filters/svf.h ****     */
  56:../../DaisySP/Source/Filters/svf.h ****     void SetDrive(float d);
  57:../../DaisySP/Source/Filters/svf.h ****     /** lowpass output
  58:../../DaisySP/Source/Filters/svf.h ****         \return low pass output of the filter
  59:../../DaisySP/Source/Filters/svf.h ****     */
  60:../../DaisySP/Source/Filters/svf.h ****     inline float Low() { return out_low_; }
 442              		.loc 16 60 18 discriminator 2 view .LVU118
 443              	.LBB466:
 444              		.loc 16 60 26 discriminator 2 view .LVU119
 445              		.loc 16 60 33 is_stmt 0 discriminator 2 view .LVU120
 446 00c0 049B     		ldr	r3, [sp, #16]
 447              	.LBE466:
 448              	.LBE465:
 449              	.LBE469:
 450              	.LBB470:
 451              	.LBB471:
  42:FilterBank.h  ****     }
 452              		.loc 15 42 22 discriminator 2 view .LVU121
 453 00c2 A248     		ldr	r0, .L64+52
 454 00c4 B0EE480A 		vmov.f32	s0, s16
 455              	.LBE471:
 456              	.LBE470:
ARM GAS  C:\Users\CHIPVI~1\AppData\Local\Temp\ccjCx3Ca.s 			page 33


 457              	.LBB473:
 458              	.LBB468:
 459              	.LBB467:
 460              		.loc 16 60 33 discriminator 2 view .LVU122
 461 00c8 93ED0C8A 		vldr.32	s16, [r3, #48]
 462              	.LVL20:
 463              		.loc 16 60 33 discriminator 2 view .LVU123
 464              	.LBE467:
 465              	.LBE468:
 466              	.LBE473:
 232:spiral2.0.cpp **** 
 233:spiral2.0.cpp ****         filterR.Process(mixR);
 467              		.loc 17 233 9 is_stmt 1 discriminator 2 view .LVU124
 468              	.LBB474:
 469              	.LBI470:
  40:FilterBank.h  ****     {
 470              		.loc 15 40 10 discriminator 2 view .LVU125
 471              	.LBB472:
  42:FilterBank.h  ****     }
 472              		.loc 15 42 9 discriminator 2 view .LVU126
  42:FilterBank.h  ****     }
 473              		.loc 15 42 22 is_stmt 0 discriminator 2 view .LVU127
 474 00cc FFF7FEFF 		bl	_ZN7daisysp3Svf7ProcessEf
 475              	.LVL21:
  42:FilterBank.h  ****     }
 476              		.loc 15 42 22 discriminator 2 view .LVU128
 477              	.LBE472:
 478              	.LBE474:
 234:spiral2.0.cpp ****         float filtR = filterR.Band();
 479              		.loc 17 234 9 is_stmt 1 discriminator 2 view .LVU129
 480              	.LBB475:
 481              	.LBI475:
 482              		.loc 15 49 11 discriminator 2 view .LVU130
 483              	.LBE475:
 484              	.LBE506:
 485              	.LBE512:
 486              		.loc 15 49 20 discriminator 2 view .LVU131
 487              	.LBB513:
 488              	.LBB507:
 489              	.LBB482:
 490              	.LBB476:
 491              	.LBI476:
 492              		.loc 16 60 18 discriminator 2 view .LVU132
 493              	.LBB477:
 494              		.loc 16 60 26 discriminator 2 view .LVU133
 495              	.LBE477:
 496              	.LBE476:
 497              	.LBE482:
 235:spiral2.0.cpp **** 
 236:spiral2.0.cpp ****         // Output
 237:spiral2.0.cpp ****         out[0][i] = filtL;
 498              		.loc 17 237 19 is_stmt 0 discriminator 2 view .LVU134
 499 00d0 DBF80020 		ldr	r2, [fp]
 238:spiral2.0.cpp ****         out[1][i] = filtR;
 500              		.loc 17 238 19 discriminator 2 view .LVU135
 501 00d4 DBF80430 		ldr	r3, [fp, #4]
 502              	.LBB483:
ARM GAS  C:\Users\CHIPVI~1\AppData\Local\Temp\ccjCx3Ca.s 			page 34


 503              	.LBB480:
 504              	.LBB478:
 505              		.loc 16 60 33 discriminator 2 view .LVU136
 506 00d8 0399     		ldr	r1, [sp, #12]
 507              	.LBE478:
 508              	.LBE480:
 509              	.LBE483:
 237:spiral2.0.cpp ****         out[1][i] = filtR;
 510              		.loc 17 237 19 discriminator 2 view .LVU137
 511 00da 3A44     		add	r2, r2, r7
 512              		.loc 17 238 19 discriminator 2 view .LVU138
 513 00dc 3B44     		add	r3, r3, r7
 514              	.LBB484:
 515              	.LBB481:
 516              	.LBB479:
 517              		.loc 16 60 33 discriminator 2 view .LVU139
 518 00de 096B     		ldr	r1, [r1, #48]	@ float
 519              	.LVL22:
 520              		.loc 16 60 33 discriminator 2 view .LVU140
 521              	.LBE479:
 522              	.LBE481:
 523              	.LBE484:
 237:spiral2.0.cpp ****         out[1][i] = filtR;
 524              		.loc 17 237 9 is_stmt 1 discriminator 2 view .LVU141
 237:spiral2.0.cpp ****         out[1][i] = filtR;
 525              		.loc 17 237 19 is_stmt 0 discriminator 2 view .LVU142
 526 00e0 82ED008A 		vstr.32	s16, [r2]
 527              		.loc 17 238 9 is_stmt 1 discriminator 2 view .LVU143
 528              		.loc 17 238 19 is_stmt 0 discriminator 2 view .LVU144
 529 00e4 1960     		str	r1, [r3]	@ float
 530              	.LBE507:
 169:spiral2.0.cpp ****     {
 531              		.loc 17 169 5 is_stmt 1 discriminator 2 view .LVU145
 532              	.LVL23:
 169:spiral2.0.cpp ****     {
 533              		.loc 17 169 25 discriminator 2 view .LVU146
 534 00e6 029B     		ldr	r3, [sp, #8]
 535 00e8 A342     		cmp	r3, r4
 536 00ea 00F0FB80 		beq	.L12
 537              	.LVL24:
 538              	.L32:
 539              	.LBB508:
 172:spiral2.0.cpp ****         writeBufR[w] = in[1][i];
 540              		.loc 17 172 9 view .LVU147
 172:spiral2.0.cpp ****         writeBufR[w] = in[1][i];
 541              		.loc 17 172 31 is_stmt 0 view .LVU148
 542 00ee DAF80030 		ldr	r3, [r10]
 543 00f2 A700     		lsls	r7, r4, #2
 173:spiral2.0.cpp **** 
 544              		.loc 17 173 31 view .LVU149
 545 00f4 DAF80420 		ldr	r2, [r10, #4]
 172:spiral2.0.cpp ****         writeBufR[w] = in[1][i];
 546              		.loc 17 172 31 view .LVU150
 547 00f8 03EB8403 		add	r3, r3, r4, lsl #2
 172:spiral2.0.cpp ****         writeBufR[w] = in[1][i];
 548              		.loc 17 172 22 view .LVU151
 549 00fc 0199     		ldr	r1, [sp, #4]
ARM GAS  C:\Users\CHIPVI~1\AppData\Local\Temp\ccjCx3Ca.s 			page 35


 173:spiral2.0.cpp **** 
 550              		.loc 17 173 31 view .LVU152
 551 00fe 02EB8402 		add	r2, r2, r4, lsl #2
 172:spiral2.0.cpp ****         writeBufR[w] = in[1][i];
 552              		.loc 17 172 31 view .LVU153
 553 0102 1868     		ldr	r0, [r3]	@ float
 172:spiral2.0.cpp ****         writeBufR[w] = in[1][i];
 554              		.loc 17 172 22 view .LVU154
 555 0104 01EB8501 		add	r1, r1, r5, lsl #2
 556 0108 0860     		str	r0, [r1]	@ float
 173:spiral2.0.cpp **** 
 557              		.loc 17 173 9 is_stmt 1 view .LVU155
 173:spiral2.0.cpp **** 
 558              		.loc 17 173 31 is_stmt 0 view .LVU156
 559 010a D2ED008A 		vldr.32	s17, [r2]
 173:spiral2.0.cpp **** 
 560              		.loc 17 173 22 view .LVU157
 561 010e 009A     		ldr	r2, [sp]
 562 0110 02EB8502 		add	r2, r2, r5, lsl #2
 176:spiral2.0.cpp ****         {
 563              		.loc 17 176 16 view .LVU158
 564 0114 0135     		adds	r5, r5, #1
 565              	.LVL25:
 173:spiral2.0.cpp **** 
 566              		.loc 17 173 22 view .LVU159
 567 0116 C2ED008A 		vstr.32	s17, [r2]
 176:spiral2.0.cpp ****         {
 568              		.loc 17 176 9 is_stmt 1 view .LVU160
 569              	.LVL26:
 176:spiral2.0.cpp ****         {
 570              		.loc 17 176 9 is_stmt 0 view .LVU161
 571 011a 8E4A     		ldr	r2, .L64+60
 572 011c 9542     		cmp	r5, r2
 573 011e 2AD9     		bls	.L13
 179:spiral2.0.cpp ****             useBufferA = !useBufferA; // swap active buffer
 574              		.loc 17 179 13 is_stmt 1 view .LVU162
 575              	.LVL27:
 180:spiral2.0.cpp **** 
 576              		.loc 17 180 13 view .LVU163
 180:spiral2.0.cpp **** 
 577              		.loc 17 180 27 is_stmt 0 view .LVU164
 578 0120 3178     		ldrb	r1, [r6]	@ zero_extendqisi2
 183:spiral2.0.cpp ****             inactiveTailIndex = BUFFER_SIZE - 1;
 579              		.loc 17 183 33 view .LVU165
 580 0122 0120     		movs	r0, #1
 187:spiral2.0.cpp ****             writeBufR  = useBufferA ? bufferA_R : bufferB_R;
 581              		.loc 17 187 24 view .LVU166
 582 0124 834D     		ldr	r5, .L64+28
 180:spiral2.0.cpp **** 
 583              		.loc 17 180 26 view .LVU167
 584 0126 81F00101 		eor	r1, r1, #1
 187:spiral2.0.cpp ****             writeBufR  = useBufferA ? bufferA_R : bufferB_R;
 585              		.loc 17 187 24 view .LVU168
 586 012a DFF80CC2 		ldr	ip, .L64+32
 180:spiral2.0.cpp **** 
 587              		.loc 17 180 24 view .LVU169
 588 012e 3170     		strb	r1, [r6]
ARM GAS  C:\Users\CHIPVI~1\AppData\Local\Temp\ccjCx3Ca.s 			page 36


 183:spiral2.0.cpp ****             inactiveTailIndex = BUFFER_SIZE - 1;
 589              		.loc 17 183 13 is_stmt 1 view .LVU170
 183:spiral2.0.cpp ****             inactiveTailIndex = BUFFER_SIZE - 1;
 590              		.loc 17 183 33 is_stmt 0 view .LVU171
 591 0130 8949     		ldr	r1, .L64+64
 592 0132 0870     		strb	r0, [r1]
 184:spiral2.0.cpp **** 
 593              		.loc 17 184 13 is_stmt 1 view .LVU172
 187:spiral2.0.cpp ****             writeBufR  = useBufferA ? bufferA_R : bufferB_R;
 594              		.loc 17 187 26 is_stmt 0 view .LVU173
 595 0134 3178     		ldrb	r1, [r6]	@ zero_extendqisi2
 188:spiral2.0.cpp ****             readBufL   = useBufferA ? bufferB_L : bufferA_L;
 596              		.loc 17 188 24 view .LVU174
 597 0136 8248     		ldr	r0, .L64+40
 187:spiral2.0.cpp ****             writeBufR  = useBufferA ? bufferA_R : bufferB_R;
 598              		.loc 17 187 24 view .LVU175
 599 0138 0029     		cmp	r1, #0
 600 013a 14BF     		ite	ne
 601 013c 2946     		movne	r1, r5
 602 013e 6146     		moveq	r1, ip
 188:spiral2.0.cpp ****             readBufL   = useBufferA ? bufferB_L : bufferA_L;
 603              		.loc 17 188 26 view .LVU176
 604 0140 96F800E0 		ldrb	lr, [r6]	@ zero_extendqisi2
 187:spiral2.0.cpp ****             writeBufR  = useBufferA ? bufferA_R : bufferB_R;
 605              		.loc 17 187 24 view .LVU177
 606 0144 0191     		str	r1, [sp, #4]
 607              	.LVL28:
 188:spiral2.0.cpp ****             readBufL   = useBufferA ? bufferB_L : bufferA_L;
 608              		.loc 17 188 24 view .LVU178
 609 0146 7D49     		ldr	r1, .L64+36
 610 0148 BEF1000F 		cmp	lr, #0
 611 014c 08BF     		it	eq
 612 014e 0146     		moveq	r1, r0
 189:spiral2.0.cpp ****             readBufR   = useBufferA ? bufferB_R : bufferA_R;
 613              		.loc 17 189 26 view .LVU179
 614 0150 96F800E0 		ldrb	lr, [r6]	@ zero_extendqisi2
 188:spiral2.0.cpp ****             readBufL   = useBufferA ? bufferB_L : bufferA_L;
 615              		.loc 17 188 24 view .LVU180
 616 0154 0091     		str	r1, [sp]
 617              	.LVL29:
 189:spiral2.0.cpp ****             readBufR   = useBufferA ? bufferB_R : bufferA_R;
 618              		.loc 17 189 24 view .LVU181
 619 0156 6146     		mov	r1, ip
 620 0158 BEF1000F 		cmp	lr, #0
 621 015c 08BF     		it	eq
 622 015e 2946     		moveq	r1, r5
 190:spiral2.0.cpp ****         }
 623              		.loc 17 190 26 view .LVU182
 624 0160 3578     		ldrb	r5, [r6]	@ zero_extendqisi2
 189:spiral2.0.cpp ****             readBufR   = useBufferA ? bufferB_R : bufferA_R;
 625              		.loc 17 189 24 view .LVU183
 626 0162 0591     		str	r1, [sp, #20]
 627              	.LVL30:
 179:spiral2.0.cpp ****             useBufferA = !useBufferA; // swap active buffer
 628              		.loc 17 179 15 view .LVU184
 629 0164 0146     		mov	r1, r0
 630 0166 7548     		ldr	r0, .L64+36
ARM GAS  C:\Users\CHIPVI~1\AppData\Local\Temp\ccjCx3Ca.s 			page 37


 631 0168 002D     		cmp	r5, #0
 632 016a 08BF     		it	eq
 633 016c 0146     		moveq	r1, r0
 634 016e 0025     		movs	r5, #0
 635 0170 0691     		str	r1, [sp, #24]
 636              	.LVL31:
 184:spiral2.0.cpp **** 
 637              		.loc 17 184 31 view .LVU185
 638 0172 7A49     		ldr	r1, .L64+68
 639 0174 0A60     		str	r2, [r1]
 187:spiral2.0.cpp ****             writeBufR  = useBufferA ? bufferA_R : bufferB_R;
 640              		.loc 17 187 13 is_stmt 1 view .LVU186
 641              	.LVL32:
 188:spiral2.0.cpp ****             readBufL   = useBufferA ? bufferB_L : bufferA_L;
 642              		.loc 17 188 13 view .LVU187
 189:spiral2.0.cpp ****             readBufR   = useBufferA ? bufferB_R : bufferA_R;
 643              		.loc 17 189 13 view .LVU188
 190:spiral2.0.cpp ****         }
 644              		.loc 17 190 13 view .LVU189
 645              	.L13:
 193:spiral2.0.cpp ****         float dryR = in[1][i];
 646              		.loc 17 193 9 view .LVU190
 193:spiral2.0.cpp ****         float dryR = in[1][i];
 647              		.loc 17 193 15 is_stmt 0 view .LVU191
 648 0176 93ED008A 		vldr.32	s16, [r3]
 649              	.LVL33:
 194:spiral2.0.cpp **** 
 650              		.loc 17 194 9 is_stmt 1 view .LVU192
 196:spiral2.0.cpp ****         float wetR = 0.0f;
 651              		.loc 17 196 9 view .LVU193
 197:spiral2.0.cpp **** 
 652              		.loc 17 197 9 view .LVU194
 200:spiral2.0.cpp ****         {
 653              		.loc 17 200 9 view .LVU195
 654              	.LBB485:
 200:spiral2.0.cpp ****         {
 655              		.loc 17 200 25 is_stmt 0 view .LVU196
 656 017a 98F80030 		ldrb	r3, [r8]	@ zero_extendqisi2
 657 017e 002B     		cmp	r3, #0
 658 0180 86D0     		beq	.L46
 200:spiral2.0.cpp ****         {
 659              		.loc 17 200 28 discriminator 1 view .LVU197
 660 0182 754B     		ldr	r3, .L64+64
 661 0184 1B78     		ldrb	r3, [r3]	@ zero_extendqisi2
 200:spiral2.0.cpp ****         {
 662              		.loc 17 200 25 discriminator 1 view .LVU198
 663 0186 002B     		cmp	r3, #0
 664 0188 82D0     		beq	.L46
 665              	.LBB486:
 202:spiral2.0.cpp ****             readStereoLinear(readBufL, readBufR, BUFFER_SIZE, grain.pos, sL, sR);
 666              		.loc 17 202 13 is_stmt 1 view .LVU199
 203:spiral2.0.cpp **** 
 667              		.loc 17 203 13 view .LVU200
 203:spiral2.0.cpp **** 
 668              		.loc 17 203 29 is_stmt 0 view .LVU201
 669 018a D8ED027A 		vldr.32	s15, [r8, #8]
 670              	.LVL34:
ARM GAS  C:\Users\CHIPVI~1\AppData\Local\Temp\ccjCx3Ca.s 			page 38


 671              	.LBB487:
 672              	.LBI487:
  79:spiral2.0.cpp ****                                     uint32_t bufSize, float pos,
 673              		.loc 17 79 20 is_stmt 1 view .LVU202
 674              	.LBB488:
  83:spiral2.0.cpp ****     // wrap to [0,bufSize)
 675              		.loc 17 83 5 view .LVU203
  85:spiral2.0.cpp ****     else if(p < 0.f) p += (float)bufSize * (1 + (uint32_t)(-p / bufSize));
 676              		.loc 17 85 5 view .LVU204
 677 018e 9FED747A 		vldr.32	s14, .L64+72
 678 0192 F4EEC77A 		vcmpe.f32	s15, s14
 679 0196 F1EE10FA 		vmrs	APSR_nzcv, FPSCR
 680 019a C0F2EF80 		blt	.L57
  85:spiral2.0.cpp ****     else if(p < 0.f) p += (float)bufSize * (1 + (uint32_t)(-p / bufSize));
 681              		.loc 17 85 29 view .LVU205
  85:spiral2.0.cpp ****     else if(p < 0.f) p += (float)bufSize * (1 + (uint32_t)(-p / bufSize));
 682              		.loc 17 85 57 is_stmt 0 view .LVU206
 683 019e C7EE876A 		vdiv.f32	s13, s15, s14
 684 01a2 FBFE666A 		vrintm.f32	s13, s13
  85:spiral2.0.cpp ****     else if(p < 0.f) p += (float)bufSize * (1 + (uint32_t)(-p / bufSize));
 685              		.loc 17 85 31 view .LVU207
 686 01a6 E6EEC77A 		vfms.f32	s15, s13, s14
 687              	.LVL35:
 688              	.L20:
  88:spiral2.0.cpp ****     uint32_t idx1 = idx + 1;
 689              		.loc 17 88 5 is_stmt 1 view .LVU208
  88:spiral2.0.cpp ****     uint32_t idx1 = idx + 1;
 690              		.loc 17 88 14 is_stmt 0 view .LVU209
 691 01aa BCEEE77A 		vcvt.u32.f32	s14, s15
  90:spiral2.0.cpp ****     float frac = p - (float)idx;
 692              		.loc 17 90 5 view .LVU210
 693 01ae 6949     		ldr	r1, .L64+60
  94:spiral2.0.cpp ****     float s0R = bufR[idx];
 694              		.loc 17 94 11 view .LVU211
 695 01b0 0598     		ldr	r0, [sp, #20]
  88:spiral2.0.cpp ****     uint32_t idx1 = idx + 1;
 696              		.loc 17 88 14 view .LVU212
 697 01b2 17EE103A 		vmov	r3, s14	@ int
 698              	.LVL36:
  89:spiral2.0.cpp ****     if(idx1 >= bufSize) idx1 -= bufSize;
 699              		.loc 17 89 5 is_stmt 1 view .LVU213
  91:spiral2.0.cpp **** 
 700              		.loc 17 91 22 is_stmt 0 view .LVU214
 701 01b6 B8EE477A 		vcvt.f32.u32	s14, s14
  89:spiral2.0.cpp ****     if(idx1 >= bufSize) idx1 -= bufSize;
 702              		.loc 17 89 14 view .LVU215
 703 01ba 5A1C     		adds	r2, r3, #1
 704              	.LVL37:
  90:spiral2.0.cpp ****     float frac = p - (float)idx;
 705              		.loc 17 90 5 is_stmt 1 view .LVU216
  91:spiral2.0.cpp **** 
 706              		.loc 17 91 11 is_stmt 0 view .LVU217
 707 01bc 77EEC77A 		vsub.f32	s15, s15, s14
 708              	.LVL38:
  90:spiral2.0.cpp ****     float frac = p - (float)idx;
 709              		.loc 17 90 5 view .LVU218
 710 01c0 8A42     		cmp	r2, r1
ARM GAS  C:\Users\CHIPVI~1\AppData\Local\Temp\ccjCx3Ca.s 			page 39


  90:spiral2.0.cpp ****     float frac = p - (float)idx;
 711              		.loc 17 90 25 is_stmt 1 view .LVU219
  90:spiral2.0.cpp ****     float frac = p - (float)idx;
 712              		.loc 17 90 30 is_stmt 0 view .LVU220
 713 01c2 88BF     		it	hi
 714 01c4 5A1A     		subhi	r2, r3, r1
 715              	.LVL39:
  91:spiral2.0.cpp **** 
 716              		.loc 17 91 5 is_stmt 1 view .LVU221
  93:spiral2.0.cpp ****     float s1L = bufL[idx1];
 717              		.loc 17 93 5 view .LVU222
  93:spiral2.0.cpp ****     float s1L = bufL[idx1];
 718              		.loc 17 93 11 is_stmt 0 view .LVU223
 719 01c6 0599     		ldr	r1, [sp, #20]
 720 01c8 01EB8301 		add	r1, r1, r3, lsl #2
 721 01cc 91ED007A 		vldr.32	s14, [r1]
 722              	.LVL40:
  94:spiral2.0.cpp ****     float s0R = bufR[idx];
 723              		.loc 17 94 5 is_stmt 1 view .LVU224
  95:spiral2.0.cpp ****     float s1R = bufR[idx1];
 724              		.loc 17 95 5 view .LVU225
  95:spiral2.0.cpp ****     float s1R = bufR[idx1];
 725              		.loc 17 95 11 is_stmt 0 view .LVU226
 726 01d0 0699     		ldr	r1, [sp, #24]
 727 01d2 01EB8303 		add	r3, r1, r3, lsl #2
 728              	.LVL41:
  95:spiral2.0.cpp ****     float s1R = bufR[idx1];
 729              		.loc 17 95 11 view .LVU227
 730 01d6 93ED009A 		vldr.32	s18, [r3]
 731              	.LVL42:
  96:spiral2.0.cpp **** 
 732              		.loc 17 96 5 is_stmt 1 view .LVU228
  98:spiral2.0.cpp ****     outR = s0R + frac * (s1R - s0R);
 733              		.loc 17 98 5 view .LVU229
  94:spiral2.0.cpp ****     float s0R = bufR[idx];
 734              		.loc 17 94 11 is_stmt 0 view .LVU230
 735 01da 00EB8203 		add	r3, r0, r2, lsl #2
 736              	.LVL43:
  96:spiral2.0.cpp **** 
 737              		.loc 17 96 11 view .LVU231
 738 01de 01EB8202 		add	r2, r1, r2, lsl #2
 739              	.LVL44:
  98:spiral2.0.cpp ****     outR = s0R + frac * (s1R - s0R);
 740              		.loc 17 98 30 view .LVU232
 741 01e2 93ED006A 		vldr.32	s12, [r3]
  99:spiral2.0.cpp **** }
 742              		.loc 17 99 30 view .LVU233
 743 01e6 D2ED006A 		vldr.32	s13, [r2]
  98:spiral2.0.cpp ****     outR = s0R + frac * (s1R - s0R);
 744              		.loc 17 98 30 view .LVU234
 745 01ea 36EE476A 		vsub.f32	s12, s12, s14
 746              	.LBE488:
 747              	.LBE487:
 205:spiral2.0.cpp **** 
 748              		.loc 17 205 33 view .LVU235
 749 01ee D8F80430 		ldr	r3, [r8, #4]
 750              	.LVL45:
ARM GAS  C:\Users\CHIPVI~1\AppData\Local\Temp\ccjCx3Ca.s 			page 40


 751              	.LBB492:
 752              	.LBB489:
  99:spiral2.0.cpp **** }
 753              		.loc 17 99 30 view .LVU236
 754 01f2 76EEC96A 		vsub.f32	s13, s13, s18
 755              	.LBE489:
 756              	.LBE492:
 205:spiral2.0.cpp **** 
 757              		.loc 17 205 33 view .LVU237
 758 01f6 D8F81020 		ldr	r2, [r8, #16]
 759              	.LVL46:
 760              	.LBB493:
 761              	.LBB494:
 105:spiral2.0.cpp ****     float x = (2.0f * M_PI * (float)n) / (float)(N - 1);
 762              		.loc 17 105 5 view .LVU238
 763 01fa 012B     		cmp	r3, #1
 105:spiral2.0.cpp ****     float x = (2.0f * M_PI * (float)n) / (float)(N - 1);
 764              		.loc 17 105 5 view .LVU239
 765              	.LBE494:
 766              	.LBE493:
 767              	.LBB497:
 768              	.LBB490:
  98:spiral2.0.cpp ****     outR = s0R + frac * (s1R - s0R);
 769              		.loc 17 98 16 view .LVU240
 770 01fc A7EE867A 		vfma.f32	s14, s15, s12
 771              	.LVL47:
  99:spiral2.0.cpp **** }
 772              		.loc 17 99 16 view .LVU241
 773 0200 A7EEA69A 		vfma.f32	s18, s15, s13
 774              	.LVL48:
  98:spiral2.0.cpp ****     outR = s0R + frac * (s1R - s0R);
 775              		.loc 17 98 16 view .LVU242
 776 0204 B0EE47AA 		vmov.f32	s20, s14
 777              	.LVL49:
  99:spiral2.0.cpp **** }
 778              		.loc 17 99 5 is_stmt 1 view .LVU243
  99:spiral2.0.cpp **** }
 779              		.loc 17 99 16 is_stmt 0 view .LVU244
 780 0208 F0EE499A 		vmov.f32	s19, s18
 781              	.LVL50:
  99:spiral2.0.cpp **** }
 782              		.loc 17 99 16 view .LVU245
 783              	.LBE490:
 784              	.LBE497:
 205:spiral2.0.cpp **** 
 785              		.loc 17 205 13 is_stmt 1 view .LVU246
 786              	.LBB498:
 787              	.LBI493:
 103:spiral2.0.cpp **** {
 788              		.loc 17 103 21 view .LVU247
 789              	.LBB495:
 105:spiral2.0.cpp ****     float x = (2.0f * M_PI * (float)n) / (float)(N - 1);
 790              		.loc 17 105 5 view .LVU248
 791 020c 40F2CC80 		bls	.L47
 106:spiral2.0.cpp ****     return 0.5f * (1.0f - cosf(x));
 792              		.loc 17 106 5 view .LVU249
 793              	.LVL51:
ARM GAS  C:\Users\CHIPVI~1\AppData\Local\Temp\ccjCx3Ca.s 			page 41


 107:spiral2.0.cpp **** }
 794              		.loc 17 107 5 view .LVU250
 106:spiral2.0.cpp ****     return 0.5f * (1.0f - cosf(x));
 795              		.loc 17 106 30 is_stmt 0 view .LVU251
 796 0210 07EE902A 		vmov	s15, r2	@ int
 106:spiral2.0.cpp ****     return 0.5f * (1.0f - cosf(x));
 797              		.loc 17 106 52 view .LVU252
 798 0214 013B     		subs	r3, r3, #1
 799              	.LVL52:
 107:spiral2.0.cpp **** }
 800              		.loc 17 107 34 view .LVU253
 801 0216 B6EE009A 		vmov.f32	s18, #5.0e-1
 802              	.LVL53:
 106:spiral2.0.cpp ****     return 0.5f * (1.0f - cosf(x));
 803              		.loc 17 106 30 view .LVU254
 804 021a B8EE676A 		vcvt.f32.u32	s12, s15
 805              	.LVL54:
 106:spiral2.0.cpp ****     return 0.5f * (1.0f - cosf(x));
 806              		.loc 17 106 52 view .LVU255
 807 021e 07EE103A 		vmov	s14, r3	@ int
 808              	.LVL55:
 106:spiral2.0.cpp ****     return 0.5f * (1.0f - cosf(x));
 809              		.loc 17 106 28 view .LVU256
 810 0222 9FED3D5B 		vldr.64	d5, .L64
 106:spiral2.0.cpp ****     return 0.5f * (1.0f - cosf(x));
 811              		.loc 17 106 30 view .LVU257
 812 0226 B7EEC66A 		vcvt.f64.f32	d6, s12
 813              	.LVL56:
 106:spiral2.0.cpp ****     return 0.5f * (1.0f - cosf(x));
 814              		.loc 17 106 42 view .LVU258
 815 022a B8EE477A 		vcvt.f32.u32	s14, s14
 106:spiral2.0.cpp ****     return 0.5f * (1.0f - cosf(x));
 816              		.loc 17 106 28 view .LVU259
 817 022e 26EE056B 		vmul.f64	d6, d6, d5
 106:spiral2.0.cpp ****     return 0.5f * (1.0f - cosf(x));
 818              		.loc 17 106 42 view .LVU260
 819 0232 B7EEC77A 		vcvt.f64.f32	d7, s14
 106:spiral2.0.cpp ****     return 0.5f * (1.0f - cosf(x));
 820              		.loc 17 106 40 view .LVU261
 821 0236 86EE070B 		vdiv.f64	d0, d6, d7
 107:spiral2.0.cpp **** }
 822              		.loc 17 107 31 view .LVU262
 823 023a B7EEC00B 		vcvt.f32.f64	s0, d0
 824 023e FFF7FEFF 		bl	cosf
 825              	.LVL57:
 107:spiral2.0.cpp **** }
 826              		.loc 17 107 25 view .LVU263
 827 0242 F7EE007A 		vmov.f32	s15, #1.0e+0
 828 0246 37EEC00A 		vsub.f32	s0, s15, s0
 107:spiral2.0.cpp **** }
 829              		.loc 17 107 34 view .LVU264
 830 024a 20EE099A 		vmul.f32	s18, s0, s18
 831              	.L23:
 832              	.LVL58:
 107:spiral2.0.cpp **** }
 833              		.loc 17 107 34 view .LVU265
 834              	.LBE495:
ARM GAS  C:\Users\CHIPVI~1\AppData\Local\Temp\ccjCx3Ca.s 			page 42


 835              	.LBE498:
 207:spiral2.0.cpp ****             float gR = sqrtf(grain.pan);
 836              		.loc 17 207 13 is_stmt 1 view .LVU266
 207:spiral2.0.cpp ****             float gR = sqrtf(grain.pan);
 837              		.loc 17 207 29 is_stmt 0 view .LVU267
 838 024e F7EE007A 		vmov.f32	s15, #1.0e+0
 207:spiral2.0.cpp ****             float gR = sqrtf(grain.pan);
 839              		.loc 17 207 43 view .LVU268
 840 0252 98ED060A 		vldr.32	s0, [r8, #24]
 207:spiral2.0.cpp ****             float gR = sqrtf(grain.pan);
 841              		.loc 17 207 29 view .LVU269
 842 0256 77EEC07A 		vsub.f32	s15, s15, s0
 843 025a F5EE407A 		vcmp.f32	s15, #0
 844 025e F1EE10FA 		vmrs	APSR_nzcv, FPSCR
 845 0262 00F1CE80 		bmi	.L58
 846 0266 F1EEE7AA 		vsqrt.f32	s21, s15
 847              	.L26:
 208:spiral2.0.cpp **** 
 848              		.loc 17 208 13 is_stmt 1 view .LVU270
 849 026a B5EE400A 		vcmp.f32	s0, #0
 850 026e F1EE10FA 		vmrs	APSR_nzcv, FPSCR
 851 0272 00F1CF80 		bmi	.L59
 208:spiral2.0.cpp **** 
 852              		.loc 17 208 29 is_stmt 0 view .LVU271
 853 0276 B1EEC05A 		vsqrt.f32	s10, s0
 854              	.L29:
 210:spiral2.0.cpp ****             wetR += sR * env * grain.gain * gR;
 855              		.loc 17 210 13 is_stmt 1 view .LVU272
 210:spiral2.0.cpp ****             wetR += sR * env * grain.gain * gR;
 856              		.loc 17 210 38 is_stmt 0 view .LVU273
 857 027a D8ED056A 		vldr.32	s13, [r8, #20]
 210:spiral2.0.cpp ****             wetR += sR * env * grain.gain * gR;
 858              		.loc 17 210 18 view .LVU274
 859 027e 9FED340A 		vldr.32	s0, .L64+56
 214:spiral2.0.cpp ****             if(grain.pos >= (float)BUFFER_SIZE)
 860              		.loc 17 214 60 view .LVU275
 861 0282 D8F81020 		ldr	r2, [r8, #16]
 214:spiral2.0.cpp ****             if(grain.pos >= (float)BUFFER_SIZE)
 862              		.loc 17 214 45 view .LVU276
 863 0286 D8ED034A 		vldr.32	s9, [r8, #12]
 210:spiral2.0.cpp ****             wetR += sR * env * grain.gain * gR;
 864              		.loc 17 210 24 view .LVU277
 865 028a 29EE0A7A 		vmul.f32	s14, s18, s20
 214:spiral2.0.cpp ****             if(grain.pos >= (float)BUFFER_SIZE)
 866              		.loc 17 214 45 view .LVU278
 867 028e D8ED087A 		vldr.32	s15, [r8, #32]
 210:spiral2.0.cpp ****             wetR += sR * env * grain.gain * gR;
 868              		.loc 17 210 18 view .LVU279
 869 0292 B0EE406A 		vmov.f32	s12, s0
 215:spiral2.0.cpp ****                 grain.pos -= (float)BUFFER_SIZE; // wrap
 870              		.loc 17 215 13 view .LVU280
 871 0296 DFED325A 		vldr.32	s11, .L64+72
 211:spiral2.0.cpp **** 
 872              		.loc 17 211 24 view .LVU281
 873 029a 29EE299A 		vmul.f32	s18, s18, s19
 874              	.LVL59:
 219:spiral2.0.cpp ****             {
ARM GAS  C:\Users\CHIPVI~1\AppData\Local\Temp\ccjCx3Ca.s 			page 43


 875              		.loc 17 219 13 view .LVU282
 876 029e D8F80430 		ldr	r3, [r8, #4]
 210:spiral2.0.cpp ****             wetR += sR * env * grain.gain * gR;
 877              		.loc 17 210 30 view .LVU283
 878 02a2 27EE267A 		vmul.f32	s14, s14, s13
 211:spiral2.0.cpp **** 
 879              		.loc 17 211 30 view .LVU284
 880 02a6 29EE269A 		vmul.f32	s18, s18, s13
 210:spiral2.0.cpp ****             wetR += sR * env * grain.gain * gR;
 881              		.loc 17 210 18 view .LVU285
 882 02aa A7EE2A6A 		vfma.f32	s12, s14, s21
 883              	.LVL60:
 211:spiral2.0.cpp **** 
 884              		.loc 17 211 13 is_stmt 1 view .LVU286
 214:spiral2.0.cpp ****             if(grain.pos >= (float)BUFFER_SIZE)
 885              		.loc 17 214 47 is_stmt 0 view .LVU287
 886 02ae 07EE102A 		vmov	s14, r2	@ int
 218:spiral2.0.cpp ****             if(grain.phase >= grain.length)
 887              		.loc 17 218 24 view .LVU288
 888 02b2 0132     		adds	r2, r2, #1
 214:spiral2.0.cpp ****             if(grain.pos >= (float)BUFFER_SIZE)
 889              		.loc 17 214 47 view .LVU289
 890 02b4 B8EE477A 		vcvt.f32.u32	s14, s14
 211:spiral2.0.cpp **** 
 891              		.loc 17 211 18 view .LVU290
 892 02b8 A9EE050A 		vfma.f32	s0, s18, s10
 893              	.LVL61:
 214:spiral2.0.cpp ****             if(grain.pos >= (float)BUFFER_SIZE)
 894              		.loc 17 214 13 is_stmt 1 view .LVU291
 218:spiral2.0.cpp ****             if(grain.phase >= grain.length)
 895              		.loc 17 218 24 is_stmt 0 view .LVU292
 896 02bc C8F81020 		str	r2, [r8, #16]
 214:spiral2.0.cpp ****             if(grain.pos >= (float)BUFFER_SIZE)
 897              		.loc 17 214 45 view .LVU293
 898 02c0 E7EE247A 		vfma.f32	s15, s14, s9
 215:spiral2.0.cpp ****                 grain.pos -= (float)BUFFER_SIZE; // wrap
 899              		.loc 17 215 13 is_stmt 1 view .LVU294
 900 02c4 F4EEE57A 		vcmpe.f32	s15, s11
 901 02c8 F1EE10FA 		vmrs	APSR_nzcv, FPSCR
 216:spiral2.0.cpp **** 
 902              		.loc 17 216 17 view .LVU295
 216:spiral2.0.cpp **** 
 903              		.loc 17 216 27 is_stmt 0 view .LVU296
 904 02cc A8BF     		it	ge
 905 02ce 77EEE57A 		vsubge.f32	s15, s15, s11
 219:spiral2.0.cpp ****             {
 906              		.loc 17 219 13 view .LVU297
 907 02d2 9A42     		cmp	r2, r3
 216:spiral2.0.cpp **** 
 908              		.loc 17 216 27 view .LVU298
 909 02d4 C8ED027A 		vstr.32	s15, [r8, #8]
 218:spiral2.0.cpp ****             if(grain.phase >= grain.length)
 910              		.loc 17 218 13 is_stmt 1 view .LVU299
 219:spiral2.0.cpp ****             {
 911              		.loc 17 219 13 view .LVU300
 912 02d8 FFF4DEAE 		bcc	.L17
 221:spiral2.0.cpp ****             }
ARM GAS  C:\Users\CHIPVI~1\AppData\Local\Temp\ccjCx3Ca.s 			page 44


 913              		.loc 17 221 17 view .LVU301
 221:spiral2.0.cpp ****             }
 914              		.loc 17 221 30 is_stmt 0 view .LVU302
 915 02dc 0023     		movs	r3, #0
 916 02de 88F80030 		strb	r3, [r8]
 917 02e2 D9E6     		b	.L17
 918              	.LVL62:
 919              	.L12:
 221:spiral2.0.cpp ****             }
 920              		.loc 17 221 30 view .LVU303
 921              	.LBE486:
 922              	.LBE485:
 923              	.LBE508:
 924              	.LBE513:
 239:spiral2.0.cpp ****     }
 240:spiral2.0.cpp **** 
 241:spiral2.0.cpp ****     // store back write head
 242:spiral2.0.cpp ****     writeHead = w;
 925              		.loc 17 242 5 is_stmt 1 view .LVU304
 926              		.loc 17 242 15 is_stmt 0 view .LVU305
 927 02e4 174A     		ldr	r2, .L64+44
 928              	.LBB514:
 929              	.LBB515:
  63:spiral2.0.cpp **** 
 930              		.loc 17 63 55 view .LVU306
 931 02e6 0E4B     		ldr	r3, .L64+8
 932              	.LBE515:
 933              	.LBE514:
 934              		.loc 17 242 15 view .LVU307
 935 02e8 1560     		str	r5, [r2]
 243:spiral2.0.cpp **** 
 244:spiral2.0.cpp ****     uint32_t end_cycles = dwt_cycles();
 936              		.loc 17 244 5 is_stmt 1 view .LVU308
 937              	.LBB518:
 938              	.LBI514:
  63:spiral2.0.cpp **** 
 939              		.loc 17 63 24 view .LVU309
 940              	.LBB516:
  63:spiral2.0.cpp **** 
 941              		.loc 17 63 43 view .LVU310
 942              	.LBE516:
 943              	.LBE518:
 245:spiral2.0.cpp ****     uint32_t elapsed = end_cycles - start_cycles;
 944              		.loc 17 245 14 is_stmt 0 view .LVU311
 945 02ea 0798     		ldr	r0, [sp, #28]
 946              	.LBB519:
 947              	.LBB517:
  63:spiral2.0.cpp **** 
 948              		.loc 17 63 55 view .LVU312
 949 02ec 5B68     		ldr	r3, [r3, #4]
 950              	.LVL63:
  63:spiral2.0.cpp **** 
 951              		.loc 17 63 55 view .LVU313
 952              	.LBE517:
 953              	.LBE519:
 954              		.loc 17 245 5 is_stmt 1 view .LVU314
 246:spiral2.0.cpp ****     audio_last_cycles = elapsed;
ARM GAS  C:\Users\CHIPVI~1\AppData\Local\Temp\ccjCx3Ca.s 			page 45


 955              		.loc 17 246 23 is_stmt 0 view .LVU315
 956 02ee 1D49     		ldr	r1, .L64+76
 245:spiral2.0.cpp ****     uint32_t elapsed = end_cycles - start_cycles;
 957              		.loc 17 245 14 view .LVU316
 958 02f0 1B1A     		subs	r3, r3, r0
 959              	.LVL64:
 960              		.loc 17 246 5 is_stmt 1 view .LVU317
 247:spiral2.0.cpp ****     if(elapsed > audio_max_cycles) audio_max_cycles = elapsed;
 961              		.loc 17 247 18 is_stmt 0 view .LVU318
 962 02f2 1D4A     		ldr	r2, .L64+80
 246:spiral2.0.cpp ****     audio_last_cycles = elapsed;
 963              		.loc 17 246 23 view .LVU319
 964 02f4 0B60     		str	r3, [r1]
 965              		.loc 17 247 5 is_stmt 1 view .LVU320
 966              		.loc 17 247 18 is_stmt 0 view .LVU321
 967 02f6 1168     		ldr	r1, [r2]
 968              		.loc 17 247 5 view .LVU322
 969 02f8 9942     		cmp	r1, r3
 970 02fa 00D2     		bcs	.L33
 971              		.loc 17 247 36 is_stmt 1 discriminator 1 view .LVU323
 972              		.loc 17 247 53 is_stmt 0 discriminator 1 view .LVU324
 973 02fc 1360     		str	r3, [r2]
 974              	.L33:
 248:spiral2.0.cpp ****     if(elapsed < audio_min_cycles) audio_min_cycles = elapsed;
 975              		.loc 17 248 5 is_stmt 1 view .LVU325
 976              		.loc 17 248 18 is_stmt 0 view .LVU326
 977 02fe 1B4A     		ldr	r2, .L64+84
 978 0300 1168     		ldr	r1, [r2]
 979              		.loc 17 248 5 view .LVU327
 980 0302 9942     		cmp	r1, r3
 981 0304 00D9     		bls	.L4
 982              		.loc 17 248 36 is_stmt 1 discriminator 1 view .LVU328
 983              		.loc 17 248 53 is_stmt 0 discriminator 1 view .LVU329
 984 0306 1360     		str	r3, [r2]
 985              	.L4:
 249:spiral2.0.cpp **** }
 986              		.loc 17 249 1 view .LVU330
 987 0308 09B0     		add	sp, sp, #36
 988              		.cfi_remember_state
 989              		.cfi_def_cfa_offset 60
 990              	.LVL65:
 991              		.loc 17 249 1 view .LVU331
 992              		@ sp needed
 993 030a BDEC068B 		vldm	sp!, {d8-d10}
 994              		.cfi_restore 84
 995              		.cfi_restore 85
 996              		.cfi_restore 82
 997              		.cfi_restore 83
 998              		.cfi_restore 80
 999              		.cfi_restore 81
 1000              		.cfi_def_cfa_offset 36
 1001 030e BDE8F08F 		pop	{r4, r5, r6, r7, r8, r9, r10, fp, pc}
 1002              	.LVL66:
 1003              	.L65:
 1004              		.loc 17 249 1 view .LVU332
 1005 0312 00BFAFF3 		.align	3
 1005      0080
ARM GAS  C:\Users\CHIPVI~1\AppData\Local\Temp\ccjCx3Ca.s 			page 46


 1006              	.L64:
 1007 0318 182D4454 		.word	1413754136
 1008 031c FB211940 		.word	1075388923
 1009 0320 001000E0 		.word	-536866816
 1010 0324 00000000 		.word	.LANCHOR0
 1011 0328 95BFD633 		.word	869711765
 1012 032c 00000000 		.word	.LANCHOR1
 1013 0330 00000000 		.word	.LANCHOR4
 1014 0334 00000000 		.word	bufferA_L
 1015 0338 00000000 		.word	bufferB_L
 1016 033c 00000000 		.word	bufferA_R
 1017 0340 00000000 		.word	bufferB_R
 1018 0344 00000000 		.word	.LANCHOR5
 1019 0348 00000000 		.word	.LANCHOR2
 1020 034c 00000000 		.word	.LANCHOR3
 1021 0350 00000000 		.word	0
 1022 0354 FFED0200 		.word	191999
 1023 0358 00000000 		.word	.LANCHOR6
 1024 035c 00000000 		.word	.LANCHOR7
 1025 0360 00803B48 		.word	1211858944
 1026 0364 00000000 		.word	.LANCHOR10
 1027 0368 00000000 		.word	.LANCHOR11
 1028 036c 00000000 		.word	.LANCHOR12
 1029 0370 00000000 		.word	.LANCHOR8
 1030 0374 00000000 		.word	.LANCHOR9
 1031 0378 26886640 		.word	1080461350
 1032              	.LVL67:
 1033              	.L57:
 1034              		.cfi_restore_state
 1035              	.LBB520:
 1036              	.LBB509:
 1037              	.LBB503:
 1038              	.LBB501:
 1039              	.LBB499:
 1040              	.LBB491:
  86:spiral2.0.cpp **** 
 1041              		.loc 17 86 10 is_stmt 1 view .LVU333
 1042 037c F5EEC07A 		vcmpe.f32	s15, #0
 1043 0380 F1EE10FA 		vmrs	APSR_nzcv, FPSCR
 1044 0384 7FF511AF 		bpl	.L20
  86:spiral2.0.cpp **** 
 1045              		.loc 17 86 22 view .LVU334
  86:spiral2.0.cpp **** 
 1046              		.loc 17 86 60 is_stmt 0 view .LVU335
 1047 0388 B1EE676A 		vneg.f32	s12, s15
  86:spiral2.0.cpp **** 
 1048              		.loc 17 86 63 view .LVU336
 1049 038c C6EE076A 		vdiv.f32	s13, s12, s14
  86:spiral2.0.cpp **** 
 1050              		.loc 17 86 49 view .LVU337
 1051 0390 FCEEE66A 		vcvt.u32.f32	s13, s13
  86:spiral2.0.cpp **** 
 1052              		.loc 17 86 47 view .LVU338
 1053 0394 16EE903A 		vmov	r3, s13	@ int
 1054 0398 0133     		adds	r3, r3, #1
 1055 039a 06EE903A 		vmov	s13, r3	@ int
  86:spiral2.0.cpp **** 
ARM GAS  C:\Users\CHIPVI~1\AppData\Local\Temp\ccjCx3Ca.s 			page 47


 1056              		.loc 17 86 42 view .LVU339
 1057 039e F8EE666A 		vcvt.f32.u32	s13, s13
  86:spiral2.0.cpp **** 
 1058              		.loc 17 86 24 view .LVU340
 1059 03a2 E6EE877A 		vfma.f32	s15, s13, s14
 1060              	.LVL68:
  86:spiral2.0.cpp **** 
 1061              		.loc 17 86 24 view .LVU341
 1062 03a6 00E7     		b	.L20
 1063              	.LVL69:
 1064              	.L47:
  86:spiral2.0.cpp **** 
 1065              		.loc 17 86 24 view .LVU342
 1066              	.LBE491:
 1067              	.LBE499:
 1068              	.LBB500:
 1069              	.LBB496:
 105:spiral2.0.cpp ****     float x = (2.0f * M_PI * (float)n) / (float)(N - 1);
 1070              		.loc 17 105 23 view .LVU343
 1071 03a8 B7EE009A 		vmov.f32	s18, #1.0e+0
 1072              	.LVL70:
 105:spiral2.0.cpp ****     float x = (2.0f * M_PI * (float)n) / (float)(N - 1);
 1073              		.loc 17 105 23 view .LVU344
 1074 03ac 4FE7     		b	.L23
 1075              	.LVL71:
 1076              	.L62:
 105:spiral2.0.cpp ****     float x = (2.0f * M_PI * (float)n) / (float)(N - 1);
 1077              		.loc 17 105 23 view .LVU345
 1078              	.LBE496:
 1079              	.LBE500:
 1080              	.LBE501:
 1081              	.LBE503:
 1082              	.LBE509:
 1083              	.LBE520:
 156:spiral2.0.cpp ****         filterR.SetFreqFromKnob(newf, 40.0f, 4000.0f);
 1084              		.loc 17 156 9 is_stmt 1 view .LVU346
 1085              	.LBB521:
 1086              	.LBI521:
  21:FilterBank.h  ****     {
 1087              		.loc 15 21 10 view .LVU347
 1088              	.LBB522:
  23:FilterBank.h  ****         if(knobVal > 1.f) knobVal = 1.f;
 1089              		.loc 15 23 9 view .LVU348
 1090 03ae B5EEC08A 		vcmpe.f32	s16, #0
 1091 03b2 F1EE10FA 		vmrs	APSR_nzcv, FPSCR
 1092 03b6 21D4     		bmi	.L35
  24:FilterBank.h  ****         float logMin = log10f(minHz);
 1093              		.loc 15 24 9 view .LVU349
 1094 03b8 F7EE007A 		vmov.f32	s15, #1.0e+0
 1095 03bc B4EEE78A 		vcmpe.f32	s16, s15
 1096 03c0 F1EE10FA 		vmrs	APSR_nzcv, FPSCR
 1097 03c4 2BDD     		ble	.L63
 1098 03c6 5FED140A 		vldr.32	s1, .L64+96
 1099              	.L7:
 1100              	.LVL72:
  25:FilterBank.h  ****         float logMax = log10f(maxHz);
 1101              		.loc 15 25 9 view .LVU350
ARM GAS  C:\Users\CHIPVI~1\AppData\Local\Temp\ccjCx3Ca.s 			page 48


  26:FilterBank.h  ****         float logF   = logMin + knobVal * (logMax - logMin);
 1102              		.loc 15 26 9 view .LVU351
  27:FilterBank.h  ****         freq_ = powf(10.0f, logF);
 1103              		.loc 15 27 9 view .LVU352
  28:FilterBank.h  ****         filt_.SetFreq(freq_);
 1104              		.loc 15 28 9 view .LVU353
  28:FilterBank.h  ****         filt_.SetFreq(freq_);
 1105              		.loc 15 28 21 is_stmt 0 view .LVU354
 1106 03ca B2EE040A 		vmov.f32	s0, #1.0e+1
 1107 03ce CDED000A 		vstr.32	s1, [sp]	@ int
 1108 03d2 FFF7FEFF 		bl	powf
 1109              	.LVL73:
  28:FilterBank.h  ****         filt_.SetFreq(freq_);
 1110              		.loc 15 28 15 view .LVU355
 1111 03d6 1548     		ldr	r0, .L66
 1112 03d8 80ED130A 		vstr.32	s0, [r0, #76]
  29:FilterBank.h  ****     }
 1113              		.loc 15 29 9 is_stmt 1 view .LVU356
  29:FilterBank.h  ****     }
 1114              		.loc 15 29 22 is_stmt 0 view .LVU357
 1115 03dc FFF7FEFF 		bl	_ZN7daisysp3Svf7SetFreqEf
 1116              	.LVL74:
  29:FilterBank.h  ****     }
 1117              		.loc 15 29 22 view .LVU358
 1118              	.LBE522:
 1119              	.LBE521:
 157:spiral2.0.cpp ****         last_applied_filt = newf;
 1120              		.loc 17 157 9 is_stmt 1 view .LVU359
 1121              	.LBB525:
 1122              	.LBI525:
  21:FilterBank.h  ****     {
 1123              		.loc 15 21 10 view .LVU360
 1124              	.LBB526:
  23:FilterBank.h  ****         if(knobVal > 1.f) knobVal = 1.f;
 1125              		.loc 15 23 9 view .LVU361
  24:FilterBank.h  ****         float logMin = log10f(minHz);
 1126              		.loc 15 24 9 view .LVU362
  25:FilterBank.h  ****         float logMax = log10f(maxHz);
 1127              		.loc 15 25 9 view .LVU363
  26:FilterBank.h  ****         float logF   = logMin + knobVal * (logMax - logMin);
 1128              		.loc 15 26 9 view .LVU364
  27:FilterBank.h  ****         freq_ = powf(10.0f, logF);
 1129              		.loc 15 27 9 view .LVU365
  28:FilterBank.h  ****         filt_.SetFreq(freq_);
 1130              		.loc 15 28 9 view .LVU366
  28:FilterBank.h  ****         filt_.SetFreq(freq_);
 1131              		.loc 15 28 21 is_stmt 0 view .LVU367
 1132 03e0 DDED000A 		vldr.32	s1, [sp]	@ int
 1133 03e4 B2EE040A 		vmov.f32	s0, #1.0e+1
 1134 03e8 FFF7FEFF 		bl	powf
 1135              	.LVL75:
  28:FilterBank.h  ****         filt_.SetFreq(freq_);
 1136              		.loc 15 28 15 view .LVU368
 1137 03ec 1048     		ldr	r0, .L66+4
 1138 03ee 80ED130A 		vstr.32	s0, [r0, #76]
  29:FilterBank.h  ****     }
 1139              		.loc 15 29 9 is_stmt 1 view .LVU369
ARM GAS  C:\Users\CHIPVI~1\AppData\Local\Temp\ccjCx3Ca.s 			page 49


  29:FilterBank.h  ****     }
 1140              		.loc 15 29 22 is_stmt 0 view .LVU370
 1141 03f2 FFF7FEFF 		bl	_ZN7daisysp3Svf7SetFreqEf
 1142              	.LVL76:
  29:FilterBank.h  ****     }
 1143              		.loc 15 29 22 view .LVU371
 1144              	.LBE526:
 1145              	.LBE525:
 158:spiral2.0.cpp ****     }
 1146              		.loc 17 158 9 is_stmt 1 view .LVU372
 158:spiral2.0.cpp ****     }
 1147              		.loc 17 158 27 is_stmt 0 view .LVU373
 1148 03f6 84ED008A 		vstr.32	s16, [r4]
 1149 03fa 1EE6     		b	.L5
 1150              	.LVL77:
 1151              	.L35:
 1152              	.LBB527:
 1153              	.LBB523:
 158:spiral2.0.cpp ****     }
 1154              		.loc 17 158 27 view .LVU374
 1155 03fc DFED0D0A 		vldr.32	s1, .L66+8
 1156 0400 E3E7     		b	.L7
 1157              	.LVL78:
 1158              	.L58:
 158:spiral2.0.cpp ****     }
 1159              		.loc 17 158 27 view .LVU375
 1160              	.LBE523:
 1161              	.LBE527:
 1162              	.LBB528:
 1163              	.LBB510:
 1164              	.LBB504:
 1165              	.LBB502:
 207:spiral2.0.cpp ****             float gR = sqrtf(grain.pan);
 1166              		.loc 17 207 29 view .LVU376
 1167 0402 B0EE670A 		vmov.f32	s0, s15
 1168 0406 FFF7FEFF 		bl	sqrtf
 1169              	.LVL79:
 1170 040a F0EE40AA 		vmov.f32	s21, s0
 208:spiral2.0.cpp **** 
 1171              		.loc 17 208 29 view .LVU377
 1172 040e 98ED060A 		vldr.32	s0, [r8, #24]
 1173 0412 2AE7     		b	.L26
 1174              	.L59:
 1175 0414 FFF7FEFF 		bl	sqrtf
 1176              	.LVL80:
 1177 0418 B0EE405A 		vmov.f32	s10, s0
 1178 041c 2DE7     		b	.L29
 1179              	.LVL81:
 1180              	.L63:
 208:spiral2.0.cpp **** 
 1181              		.loc 17 208 29 view .LVU378
 1182              	.LBE502:
 1183              	.LBE504:
 1184              	.LBE510:
 1185              	.LBE528:
 1186              	.LBB529:
 1187              	.LBB524:
ARM GAS  C:\Users\CHIPVI~1\AppData\Local\Temp\ccjCx3Ca.s 			page 50


  27:FilterBank.h  ****         freq_ = powf(10.0f, logF);
 1188              		.loc 15 27 15 view .LVU379
 1189 041e F0EE007A 		vmov.f32	s15, #2.0e+0
 1190 0422 DFED040A 		vldr.32	s1, .L66+8
 1191 0426 E8EE270A 		vfma.f32	s1, s16, s15
 1192 042a CEE7     		b	.L7
 1193              	.L67:
 1194              		.align	2
 1195              	.L66:
 1196 042c 00000000 		.word	.LANCHOR2
 1197 0430 00000000 		.word	.LANCHOR3
 1198 0434 4D10CD3F 		.word	1070403661
 1199              	.LBE524:
 1200              	.LBE529:
 1201              		.cfi_endproc
 1202              	.LFE4706:
 1204              		.section	.text._Z12triggerGrainmmfff,"ax",%progbits
 1205              		.align	1
 1206              		.p2align 2,,3
 1207              		.global	_Z12triggerGrainmmfff
 1208              		.syntax unified
 1209              		.thumb
 1210              		.thumb_func
 1211              		.fpu fpv5-d16
 1213              	_Z12triggerGrainmmfff:
 1214              	.LVL82:
 1215              	.LFB4705:
 112:spiral2.0.cpp ****     if(lengthSamples < 2) return;
 1216              		.loc 17 112 1 is_stmt 1 view -0
 1217              		.cfi_startproc
 1218              		@ args = 0, pretend = 0, frame = 0
 1219              		@ frame_needed = 0, uses_anonymous_args = 0
 1220              		@ link register save eliminated.
 113:spiral2.0.cpp ****     grain.active = true;
 1221              		.loc 17 113 5 view .LVU381
 1222 0000 0129     		cmp	r1, #1
 1223 0002 16D9     		bls	.L68
 114:spiral2.0.cpp ****     grain.length = lengthSamples;
 1224              		.loc 17 114 5 view .LVU382
 117:spiral2.0.cpp ****     grain.pos = grain.fixedStartPos;
 1225              		.loc 17 117 27 is_stmt 0 view .LVU383
 1226 0004 07EE900A 		vmov	s15, r0	@ int
 114:spiral2.0.cpp ****     grain.length = lengthSamples;
 1227              		.loc 17 114 18 view .LVU384
 1228 0008 0A4B     		ldr	r3, .L70
 1229 000a 4FF0010C 		mov	ip, #1
 120:spiral2.0.cpp ****     grain.gain = gain;
 1230              		.loc 17 120 17 view .LVU385
 1231 000e 0022     		movs	r2, #0
 117:spiral2.0.cpp ****     grain.pos = grain.fixedStartPos;
 1232              		.loc 17 117 27 view .LVU386
 1233 0010 F8EE677A 		vcvt.f32.u32	s15, s15
 115:spiral2.0.cpp ****     // store start relative to the inactive snapshot buffer indexing
 1234              		.loc 17 115 18 view .LVU387
 1235 0014 5960     		str	r1, [r3, #4]
 119:spiral2.0.cpp ****     grain.phase = 0;
 1236              		.loc 17 119 16 view .LVU388
ARM GAS  C:\Users\CHIPVI~1\AppData\Local\Temp\ccjCx3Ca.s 			page 51


 1237 0016 83ED030A 		vstr.32	s0, [r3, #12]
 114:spiral2.0.cpp ****     grain.length = lengthSamples;
 1238              		.loc 17 114 18 view .LVU389
 1239 001a 83F800C0 		strb	ip, [r3]
 115:spiral2.0.cpp ****     // store start relative to the inactive snapshot buffer indexing
 1240              		.loc 17 115 5 is_stmt 1 view .LVU390
 117:spiral2.0.cpp ****     grain.pos = grain.fixedStartPos;
 1241              		.loc 17 117 5 view .LVU391
 117:spiral2.0.cpp ****     grain.pos = grain.fixedStartPos;
 1242              		.loc 17 117 25 is_stmt 0 view .LVU392
 1243 001e C3ED087A 		vstr.32	s15, [r3, #32]
 118:spiral2.0.cpp ****     grain.step = pitchRatio;
 1244              		.loc 17 118 5 is_stmt 1 view .LVU393
 118:spiral2.0.cpp ****     grain.step = pitchRatio;
 1245              		.loc 17 118 15 is_stmt 0 view .LVU394
 1246 0022 C3ED027A 		vstr.32	s15, [r3, #8]
 119:spiral2.0.cpp ****     grain.phase = 0;
 1247              		.loc 17 119 5 is_stmt 1 view .LVU395
 120:spiral2.0.cpp ****     grain.gain = gain;
 1248              		.loc 17 120 5 view .LVU396
 120:spiral2.0.cpp ****     grain.gain = gain;
 1249              		.loc 17 120 17 is_stmt 0 view .LVU397
 1250 0026 1A61     		str	r2, [r3, #16]
 121:spiral2.0.cpp ****     grain.pan = pan;
 1251              		.loc 17 121 5 is_stmt 1 view .LVU398
 121:spiral2.0.cpp ****     grain.pan = pan;
 1252              		.loc 17 121 16 is_stmt 0 view .LVU399
 1253 0028 C3ED050A 		vstr.32	s1, [r3, #20]
 122:spiral2.0.cpp ****     grain.startSample = startSample;
 1254              		.loc 17 122 5 is_stmt 1 view .LVU400
 122:spiral2.0.cpp ****     grain.startSample = startSample;
 1255              		.loc 17 122 15 is_stmt 0 view .LVU401
 1256 002c 83ED061A 		vstr.32	s2, [r3, #24]
 123:spiral2.0.cpp **** }
 1257              		.loc 17 123 5 is_stmt 1 view .LVU402
 123:spiral2.0.cpp **** }
 1258              		.loc 17 123 23 is_stmt 0 view .LVU403
 1259 0030 D861     		str	r0, [r3, #28]
 1260              	.L68:
 124:spiral2.0.cpp **** 
 1261              		.loc 17 124 1 view .LVU404
 1262 0032 7047     		bx	lr
 1263              	.L71:
 1264              		.align	2
 1265              	.L70:
 1266 0034 00000000 		.word	.LANCHOR8
 1267              		.cfi_endproc
 1268              	.LFE4705:
 1270              		.section	.rodata.main.str1.4,"aMS",%progbits,1
 1271              		.align	2
 1272              	.LC0:
 1273 0000 53706972 		.ascii	"Spiral1: Granular (single-grain) + Filter (delay re"
 1273      616C313A 
 1273      20477261 
 1273      6E756C61 
 1273      72202873 
 1274 0033 6D6F7665 		.ascii	"moved) + Double Buffer (ping-pong)\000"
ARM GAS  C:\Users\CHIPVI~1\AppData\Local\Temp\ccjCx3Ca.s 			page 52


 1274      6429202B 
 1274      20446F75 
 1274      626C6520 
 1274      42756666 
 1275 0056 0000     		.align	2
 1276              	.LC1:
 1277 0058 41756469 		.ascii	"Audio started. Button2=trigger grain. EncClick=Leve"
 1277      6F207374 
 1277      61727465 
 1277      642E2042 
 1277      7574746F 
 1278 008b 6C456469 		.ascii	"lEdit. Btn1 hold=EffectEdit.\000"
 1278      742E2042 
 1278      746E3120 
 1278      686F6C64 
 1278      3D456666 
 1279              		.align	2
 1280              	.LC2:
 1281 00a8 4C657665 		.ascii	"LevelEdit=%d EffectEdit=%d\000"
 1281      6C456469 
 1281      743D2564 
 1281      20456666 
 1281      65637445 
 1282 00c3 00       		.align	2
 1283              	.LC3:
 1284 00c4 45666665 		.ascii	"EffectEdit=%d LevelEdit=%d\000"
 1284      63744564 
 1284      69743D25 
 1284      64204C65 
 1284      76656C45 
 1285 00df 00       		.align	2
 1286              	.LC4:
 1287 00e0 2A2A2A20 		.ascii	"*** BUFFER LENGTH: %u ms ***\000"
 1287      42554646 
 1287      4552204C 
 1287      454E4754 
 1287      483A2025 
 1288 00fd 000000   		.align	2
 1289              	.LC5:
 1290 0100 47726169 		.ascii	"Grain: start=%u len=%u semis=%d\000"
 1290      6E3A2073 
 1290      74617274 
 1290      3D257520 
 1290      6C656E3D 
 1291              		.align	2
 1292              	.LC6:
 1293 0120 50697463 		.ascii	"Pitch: %d semitones\000"
 1293      683A2025 
 1293      64207365 
 1293      6D69746F 
 1293      6E657300 
 1294              		.global	__aeabi_uldivmod
 1295              		.global	__aeabi_ldivmod
 1296              		.global	__aeabi_f2ulz
 1297              		.align	2
 1298              	.LC7:
 1299 0134 41756469 		.ascii	"Audio cycles last=%lu max=%lu block=%lu cps_x100=%l"
ARM GAS  C:\Users\CHIPVI~1\AppData\Local\Temp\ccjCx3Ca.s 			page 53


 1299      6F206379 
 1299      636C6573 
 1299      206C6173 
 1299      743D256C 
 1300 0167 75206370 		.ascii	"u cpu=%lu.%02lu%%\000"
 1300      753D256C 
 1300      752E2530 
 1300      326C7525 
 1300      2500
 1301              		.section	.text.startup.main,"ax",%progbits
 1302              		.align	1
 1303              		.p2align 2,,3
 1304              		.global	main
 1305              		.syntax unified
 1306              		.thumb
 1307              		.thumb_func
 1308              		.fpu fpv5-d16
 1310              	main:
 1311              	.LFB4707:
 250:spiral2.0.cpp **** 
 251:spiral2.0.cpp **** // ----------------- main -----------------
 252:spiral2.0.cpp **** int main(void)
 253:spiral2.0.cpp **** {
 1312              		.loc 17 253 1 is_stmt 1 view -0
 1313              		.cfi_startproc
 1314              		@ args = 0, pretend = 0, frame = 16
 1315              		@ frame_needed = 0, uses_anonymous_args = 0
 254:spiral2.0.cpp ****     pod.Init();
 1316              		.loc 17 254 5 view .LVU406
 1317              		.loc 17 254 13 is_stmt 0 view .LVU407
 1318 0000 0021     		movs	r1, #0
 253:spiral2.0.cpp ****     pod.Init();
 1319              		.loc 17 253 1 view .LVU408
 1320 0002 2DE9F04F 		push	{r4, r5, r6, r7, r8, r9, r10, fp, lr}
 1321              		.cfi_def_cfa_offset 36
 1322              		.cfi_offset 4, -36
 1323              		.cfi_offset 5, -32
 1324              		.cfi_offset 6, -28
 1325              		.cfi_offset 7, -24
 1326              		.cfi_offset 8, -20
 1327              		.cfi_offset 9, -16
 1328              		.cfi_offset 10, -12
 1329              		.cfi_offset 11, -8
 1330              		.cfi_offset 14, -4
 1331              		.loc 17 254 13 view .LVU409
 1332 0006 C54C     		ldr	r4, .L130
 1333              	.LBB590:
 1334              	.LBB591:
  60:spiral2.0.cpp ****     DWT->CTRL |= DWT_CTRL_CYCCNTENA_Msk;
 1335              		.loc 17 60 17 view .LVU410
 1336 0008 0D46     		mov	r5, r1
 1337              	.LBE591:
 1338              	.LBE590:
 1339              	.LBB594:
 1340              	.LBB595:
  15:FilterBank.h  ****         filt_.SetRes(0.0f); // Very low for pure rolloff, no peak
 1341              		.loc 15 15 19 view .LVU411
ARM GAS  C:\Users\CHIPVI~1\AppData\Local\Temp\ccjCx3Ca.s 			page 54


 1342 000a C54F     		ldr	r7, .L130+4
 1343              	.LBE595:
 1344              	.LBE594:
 1345              		.loc 17 254 13 view .LVU412
 1346 000c 2046     		mov	r0, r4
 1347              	.LBB600:
 1348              	.LBB601:
  15:FilterBank.h  ****         filt_.SetRes(0.0f); // Very low for pure rolloff, no peak
 1349              		.loc 15 15 19 view .LVU413
 1350 000e C54E     		ldr	r6, .L130+8
 1351              	.LBE601:
 1352              	.LBE600:
 1353              	.LBB605:
 1354              	.LBB596:
  17:FilterBank.h  ****     }
 1355              		.loc 15 17 15 view .LVU414
 1356 0010 DFF8A883 		ldr	r8, .L130+160
 1357              	.LBE596:
 1358              	.LBE605:
 255:spiral2.0.cpp ****     pod.seed.StartLog(false);
 256:spiral2.0.cpp ****     pod.seed.PrintLine("Spiral1: Granular (single-grain) + Filter (delay removed) + Double Buffer (
 257:spiral2.0.cpp **** 
 258:spiral2.0.cpp ****     // SDRAM init
 259:spiral2.0.cpp ****     pod.seed.sdram_handle.Init();
 260:spiral2.0.cpp **** 
 261:spiral2.0.cpp ****     // DWT profiling
 262:spiral2.0.cpp ****     dwt_init();
 263:spiral2.0.cpp **** 
 264:spiral2.0.cpp ****     // DSP init
 265:spiral2.0.cpp ****     filterL.Init((float)SAMPLE_RATE_HZ);
 266:spiral2.0.cpp ****     filterR.Init((float)SAMPLE_RATE_HZ);
 267:spiral2.0.cpp **** 
 268:spiral2.0.cpp ****     // audio setup
 269:spiral2.0.cpp ****     pod.SetAudioSampleRate(SaiHandle::Config::SampleRate::SAI_48KHZ);
 270:spiral2.0.cpp ****     pod.SetAudioBlockSize(48);
 271:spiral2.0.cpp ****     pod.StartAdc();
 272:spiral2.0.cpp **** 
 273:spiral2.0.cpp ****     // clear both buffers
 274:spiral2.0.cpp ****     for(uint32_t i=0;i<BUFFER_SIZE;i++){ bufferA_L[i]=0.0f; bufferA_R[i]=0.0f; bufferB_L[i]=0.0f; b
 275:spiral2.0.cpp ****     writeHead = 0;
 276:spiral2.0.cpp ****     useBufferA = true;
 277:spiral2.0.cpp ****     inactiveBufferReady = false;
 278:spiral2.0.cpp **** 
 279:spiral2.0.cpp ****     // LED default
 280:spiral2.0.cpp ****     pod.led1.Set(1.0f,0.0f,0.0f); // red = normal
 281:spiral2.0.cpp ****     pod.UpdateLeds();
 282:spiral2.0.cpp **** 
 283:spiral2.0.cpp ****     // start audio
 284:spiral2.0.cpp ****     pod.StartAudio(AudioCallback);
 285:spiral2.0.cpp ****     pod.seed.PrintLine("Audio started. Button2=trigger grain. EncClick=LevelEdit. Btn1 hold=EffectE
 286:spiral2.0.cpp **** 
 287:spiral2.0.cpp ****     // defaults
 288:spiral2.0.cpp ****     currentBufferLengthMs = bufferLengthMsTable[bufferLengthIndex];
 289:spiral2.0.cpp ****     filtCut_sm = pod.knob1.Value();
 1359              		.loc 17 289 16 view .LVU415
 1360 0014 DFF8A8B3 		ldr	fp, .L130+164
 253:spiral2.0.cpp ****     pod.Init();
ARM GAS  C:\Users\CHIPVI~1\AppData\Local\Temp\ccjCx3Ca.s 			page 55


 1361              		.loc 17 253 1 view .LVU416
 1362 0018 2DED048B 		vpush.64	{d8, d9}
 1363              		.cfi_def_cfa_offset 52
 1364              		.cfi_offset 80, -52
 1365              		.cfi_offset 81, -48
 1366              		.cfi_offset 82, -44
 1367              		.cfi_offset 83, -40
 1368 001c 89B0     		sub	sp, sp, #36
 1369              		.cfi_def_cfa_offset 88
 254:spiral2.0.cpp ****     pod.seed.StartLog(false);
 1370              		.loc 17 254 13 view .LVU417
 1371 001e FFF7FEFF 		bl	_ZN5daisy8DaisyPod4InitEb
 1372              	.LVL83:
 255:spiral2.0.cpp ****     pod.seed.StartLog(false);
 1373              		.loc 17 255 5 is_stmt 1 view .LVU418
 1374              	.LBB606:
 1375              	.LBI606:
  23:../../libDaisy/src/daisy_seed.h **** 
  24:../../libDaisy/src/daisy_seed.h ****     /** This function used to provide a pre-initialization configuraiton 
  25:../../libDaisy/src/daisy_seed.h ****      *  it has since been deprecated, and does nothing.
  26:../../libDaisy/src/daisy_seed.h ****      */
  27:../../libDaisy/src/daisy_seed.h ****     void Configure();
  28:../../libDaisy/src/daisy_seed.h **** 
  29:../../libDaisy/src/daisy_seed.h ****     /** 
  30:../../libDaisy/src/daisy_seed.h ****     Initializes the Daisy Seed and the following peripherals:
  31:../../libDaisy/src/daisy_seed.h ****     SDRAM, QSPI, 24-bit 48kHz Audio via AK4556, Internal USB,
  32:../../libDaisy/src/daisy_seed.h ****     as well as the built-in LED and Testpoint.
  33:../../libDaisy/src/daisy_seed.h **** 
  34:../../libDaisy/src/daisy_seed.h ****     ADCs, DACs, and other special peripherals (such as I2C, SPI, etc.)
  35:../../libDaisy/src/daisy_seed.h ****     can be initialized using their specific initializers within libdaisy
  36:../../libDaisy/src/daisy_seed.h ****     for a specific application.
  37:../../libDaisy/src/daisy_seed.h ****     */
  38:../../libDaisy/src/daisy_seed.h ****     void Init(bool boost = false);
  39:../../libDaisy/src/daisy_seed.h **** 
  40:../../libDaisy/src/daisy_seed.h ****     /** 
  41:../../libDaisy/src/daisy_seed.h ****     Deinitializes all peripherals automatically handled by `Init`.
  42:../../libDaisy/src/daisy_seed.h ****     */
  43:../../libDaisy/src/daisy_seed.h ****     void DeInit();
  44:../../libDaisy/src/daisy_seed.h **** 
  45:../../libDaisy/src/daisy_seed.h ****     /** 
  46:../../libDaisy/src/daisy_seed.h ****     Wait some ms before going on.
  47:../../libDaisy/src/daisy_seed.h ****     \param del Delay time in ms.
  48:../../libDaisy/src/daisy_seed.h ****     */
  49:../../libDaisy/src/daisy_seed.h ****     void DelayMs(size_t del);
  50:../../libDaisy/src/daisy_seed.h **** 
  51:../../libDaisy/src/daisy_seed.h ****     /** 
  52:../../libDaisy/src/daisy_seed.h ****     Returns the gpio_pin corresponding to the index 0-31.
  53:../../libDaisy/src/daisy_seed.h ****     For the given GPIO on the Daisy Seed (labeled 1-32 in docs).
  54:../../libDaisy/src/daisy_seed.h ****     */
  55:../../libDaisy/src/daisy_seed.h ****     static dsy_gpio_pin GetPin(uint8_t pin_idx);
  56:../../libDaisy/src/daisy_seed.h **** 
  57:../../libDaisy/src/daisy_seed.h ****     /** Begins the audio for the seeds builtin audio.
  58:../../libDaisy/src/daisy_seed.h ****     the specified callback will get called whenever
  59:../../libDaisy/src/daisy_seed.h ****     new data is ready to be prepared.
  60:../../libDaisy/src/daisy_seed.h ****     */
  61:../../libDaisy/src/daisy_seed.h ****     void StartAudio(AudioHandle::InterleavingAudioCallback cb);
  62:../../libDaisy/src/daisy_seed.h **** 
ARM GAS  C:\Users\CHIPVI~1\AppData\Local\Temp\ccjCx3Ca.s 			page 56


  63:../../libDaisy/src/daisy_seed.h ****     /** Begins the audio for the seeds builtin audio.
  64:../../libDaisy/src/daisy_seed.h ****     the specified callback will get called whenever
  65:../../libDaisy/src/daisy_seed.h ****     new data is ready to be prepared.
  66:../../libDaisy/src/daisy_seed.h ****     This will use the newer non-interleaved callback.
  67:../../libDaisy/src/daisy_seed.h ****     */
  68:../../libDaisy/src/daisy_seed.h ****     void StartAudio(AudioHandle::AudioCallback cb);
  69:../../libDaisy/src/daisy_seed.h **** 
  70:../../libDaisy/src/daisy_seed.h ****     /** Changes to a new interleaved callback
  71:../../libDaisy/src/daisy_seed.h ****      */
  72:../../libDaisy/src/daisy_seed.h ****     void ChangeAudioCallback(AudioHandle::InterleavingAudioCallback cb);
  73:../../libDaisy/src/daisy_seed.h **** 
  74:../../libDaisy/src/daisy_seed.h ****     /** Changes to a new multichannel callback
  75:../../libDaisy/src/daisy_seed.h ****      */
  76:../../libDaisy/src/daisy_seed.h ****     void ChangeAudioCallback(AudioHandle::AudioCallback cb);
  77:../../libDaisy/src/daisy_seed.h **** 
  78:../../libDaisy/src/daisy_seed.h ****     /** Stops the audio if it is running. */
  79:../../libDaisy/src/daisy_seed.h ****     void StopAudio();
  80:../../libDaisy/src/daisy_seed.h **** 
  81:../../libDaisy/src/daisy_seed.h ****     /** Updates the Audio Sample Rate, and reinitializes.
  82:../../libDaisy/src/daisy_seed.h ****      ** Audio must be stopped for this to work.
  83:../../libDaisy/src/daisy_seed.h ****      */
  84:../../libDaisy/src/daisy_seed.h ****     void SetAudioSampleRate(SaiHandle::Config::SampleRate samplerate);
  85:../../libDaisy/src/daisy_seed.h **** 
  86:../../libDaisy/src/daisy_seed.h ****     /** Returns the audio sample rate in Hz as a floating point number.
  87:../../libDaisy/src/daisy_seed.h ****      */
  88:../../libDaisy/src/daisy_seed.h ****     float AudioSampleRate();
  89:../../libDaisy/src/daisy_seed.h **** 
  90:../../libDaisy/src/daisy_seed.h ****     /** Sets the number of samples processed per channel by the audio callback.
  91:../../libDaisy/src/daisy_seed.h ****      */
  92:../../libDaisy/src/daisy_seed.h ****     void SetAudioBlockSize(size_t blocksize);
  93:../../libDaisy/src/daisy_seed.h **** 
  94:../../libDaisy/src/daisy_seed.h ****     /** Returns the number of samples per channel in a block of audio. */
  95:../../libDaisy/src/daisy_seed.h ****     size_t AudioBlockSize();
  96:../../libDaisy/src/daisy_seed.h **** 
  97:../../libDaisy/src/daisy_seed.h ****     /** Returns the rate in Hz that the Audio callback is called */
  98:../../libDaisy/src/daisy_seed.h ****     float AudioCallbackRate() const;
  99:../../libDaisy/src/daisy_seed.h **** 
 100:../../libDaisy/src/daisy_seed.h ****     /** Returns the SAI Handle for the Daisy Seed 
 101:../../libDaisy/src/daisy_seed.h ****      *  This can be useful when adding a secondary codec,
 102:../../libDaisy/src/daisy_seed.h ****      *  the result of this function can be passed to the audio reinit 
 103:../../libDaisy/src/daisy_seed.h ****      *  with an SAI2 configuration
 104:../../libDaisy/src/daisy_seed.h ****      */
 105:../../libDaisy/src/daisy_seed.h ****     const SaiHandle& AudioSaiHandle() const;
 106:../../libDaisy/src/daisy_seed.h **** 
 107:../../libDaisy/src/daisy_seed.h ****     /** Sets the state of the built in LED
 108:../../libDaisy/src/daisy_seed.h ****      */
 109:../../libDaisy/src/daisy_seed.h ****     void SetLed(bool state);
 110:../../libDaisy/src/daisy_seed.h **** 
 111:../../libDaisy/src/daisy_seed.h ****     /** Sets the state of the test point near pin 10
 112:../../libDaisy/src/daisy_seed.h ****      */
 113:../../libDaisy/src/daisy_seed.h ****     void SetTestPoint(bool state);
 114:../../libDaisy/src/daisy_seed.h **** 
 115:../../libDaisy/src/daisy_seed.h ****     /** Print formatted debug log message
 116:../../libDaisy/src/daisy_seed.h ****      */
 117:../../libDaisy/src/daisy_seed.h ****     template <typename... VA>
 118:../../libDaisy/src/daisy_seed.h ****     static void Print(const char* format, VA... va)
 119:../../libDaisy/src/daisy_seed.h ****     {
ARM GAS  C:\Users\CHIPVI~1\AppData\Local\Temp\ccjCx3Ca.s 			page 57


 120:../../libDaisy/src/daisy_seed.h ****         Log::Print(format, va...);
 121:../../libDaisy/src/daisy_seed.h ****     }
 122:../../libDaisy/src/daisy_seed.h **** 
 123:../../libDaisy/src/daisy_seed.h ****     /** Print formatted debug log message with automatic line termination
 124:../../libDaisy/src/daisy_seed.h ****     */
 125:../../libDaisy/src/daisy_seed.h ****     template <typename... VA>
 126:../../libDaisy/src/daisy_seed.h ****     static void PrintLine(const char* format, VA... va)
 127:../../libDaisy/src/daisy_seed.h ****     {
 128:../../libDaisy/src/daisy_seed.h ****         Log::PrintLine(format, va...);
 129:../../libDaisy/src/daisy_seed.h ****     }
 130:../../libDaisy/src/daisy_seed.h **** 
 131:../../libDaisy/src/daisy_seed.h ****     /** Start the logging session. Optionally wait for terminal connection before proceeding.
 132:../../libDaisy/src/daisy_seed.h ****     */
 133:../../libDaisy/src/daisy_seed.h ****     static void StartLog(bool wait_for_pc = false)
 1376              		.loc 10 133 17 view .LVU419
 1377              	.LBB607:
 134:../../libDaisy/src/daisy_seed.h ****     {
 135:../../libDaisy/src/daisy_seed.h ****         Log::StartLog(wait_for_pc);
 1378              		.loc 10 135 9 view .LVU420
 1379              		.loc 10 135 22 is_stmt 0 view .LVU421
 1380 0022 2846     		mov	r0, r5
 1381 0024 FFF7FEFF 		bl	_ZN5daisy6LoggerILNS_17LoggerDestinationE1EE8StartLogEb
 1382              	.LVL84:
 1383              		.loc 10 135 22 view .LVU422
 1384              	.LBE607:
 1385              	.LBE606:
 256:spiral2.0.cpp **** 
 1386              		.loc 17 256 5 is_stmt 1 view .LVU423
 1387              	.LBB608:
 1388              	.LBI608:
 126:../../libDaisy/src/daisy_seed.h ****     {
 1389              		.loc 10 126 17 view .LVU424
 1390              	.LBB609:
 128:../../libDaisy/src/daisy_seed.h ****     }
 1391              		.loc 10 128 23 is_stmt 0 view .LVU425
 1392 0028 BF48     		ldr	r0, .L130+12
 1393 002a FFF7FEFF 		bl	_ZN5daisy6LoggerILNS_17LoggerDestinationE1EE9PrintLineEPKcz
 1394              	.LVL85:
 128:../../libDaisy/src/daisy_seed.h ****     }
 1395              		.loc 10 128 23 view .LVU426
 1396              	.LBE609:
 1397              	.LBE608:
 259:spiral2.0.cpp **** 
 1398              		.loc 17 259 5 is_stmt 1 view .LVU427
 259:spiral2.0.cpp **** 
 1399              		.loc 17 259 31 is_stmt 0 view .LVU428
 1400 002e 04F11200 		add	r0, r4, #18
 1401 0032 FFF7FEFF 		bl	_ZN11SdramHandle4InitEv
 1402              	.LVL86:
 262:spiral2.0.cpp **** 
 1403              		.loc 17 262 5 is_stmt 1 view .LVU429
 1404              	.LBB610:
 1405              	.LBI590:
  58:spiral2.0.cpp ****     CoreDebug->DEMCR |= CoreDebug_DEMCR_TRCENA_Msk;
 1406              		.loc 17 58 20 view .LVU430
 1407              	.LBB592:
  59:spiral2.0.cpp ****     DWT->CYCCNT = 0;
ARM GAS  C:\Users\CHIPVI~1\AppData\Local\Temp\ccjCx3Ca.s 			page 58


 1408              		.loc 17 59 5 view .LVU431
  59:spiral2.0.cpp ****     DWT->CYCCNT = 0;
 1409              		.loc 17 59 22 is_stmt 0 view .LVU432
 1410 0036 BD4A     		ldr	r2, .L130+16
 1411              	.LBE592:
 1412              	.LBE610:
 1413              	.LBB611:
 1414              	.LBB597:
  15:FilterBank.h  ****         filt_.SetRes(0.0f); // Very low for pure rolloff, no peak
 1415              		.loc 15 15 19 view .LVU433
 1416 0038 3846     		mov	r0, r7
 1417 003a 9FEDBD0A 		vldr.32	s0, .L130+20
 1418              	.LBE597:
 1419              	.LBE611:
 1420              	.LBB612:
 1421              	.LBB593:
  59:spiral2.0.cpp ****     DWT->CYCCNT = 0;
 1422              		.loc 17 59 22 view .LVU434
 1423 003e D2F8FC30 		ldr	r3, [r2, #252]
 1424 0042 43F08073 		orr	r3, r3, #16777216
 1425 0046 C2F8FC30 		str	r3, [r2, #252]
  60:spiral2.0.cpp ****     DWT->CTRL |= DWT_CTRL_CYCCNTENA_Msk;
 1426              		.loc 17 60 5 is_stmt 1 view .LVU435
  60:spiral2.0.cpp ****     DWT->CTRL |= DWT_CTRL_CYCCNTENA_Msk;
 1427              		.loc 17 60 17 is_stmt 0 view .LVU436
 1428 004a BA4B     		ldr	r3, .L130+24
 1429 004c 5D60     		str	r5, [r3, #4]
  61:spiral2.0.cpp **** }
 1430              		.loc 17 61 5 is_stmt 1 view .LVU437
  61:spiral2.0.cpp **** }
 1431              		.loc 17 61 15 is_stmt 0 view .LVU438
 1432 004e 1A68     		ldr	r2, [r3]
 1433 0050 42F00102 		orr	r2, r2, #1
 1434 0054 1A60     		str	r2, [r3]
 1435              	.LBE593:
 1436              	.LBE612:
 265:spiral2.0.cpp ****     filterR.Init((float)SAMPLE_RATE_HZ);
 1437              		.loc 17 265 5 is_stmt 1 view .LVU439
 1438              	.LVL87:
 1439              	.LBB613:
 1440              	.LBI594:
  13:FilterBank.h  ****     {
 1441              		.loc 15 13 10 view .LVU440
 1442              	.LBB598:
  15:FilterBank.h  ****         filt_.SetRes(0.0f); // Very low for pure rolloff, no peak
 1443              		.loc 15 15 9 view .LVU441
  15:FilterBank.h  ****         filt_.SetRes(0.0f); // Very low for pure rolloff, no peak
 1444              		.loc 15 15 19 is_stmt 0 view .LVU442
 1445 0056 FFF7FEFF 		bl	_ZN7daisysp3Svf4InitEf
 1446              	.LVL88:
  16:FilterBank.h  ****         freq_ = 1000.0f;
 1447              		.loc 15 16 9 is_stmt 1 view .LVU443
  16:FilterBank.h  ****         freq_ = 1000.0f;
 1448              		.loc 15 16 21 is_stmt 0 view .LVU444
 1449 005a 3846     		mov	r0, r7
 1450 005c 9FEDB60A 		vldr.32	s0, .L130+28
 1451 0060 FFF7FEFF 		bl	_ZN7daisysp3Svf6SetResEf
ARM GAS  C:\Users\CHIPVI~1\AppData\Local\Temp\ccjCx3Ca.s 			page 59


 1452              	.LVL89:
  17:FilterBank.h  ****     }
 1453              		.loc 15 17 9 is_stmt 1 view .LVU445
 1454              	.LBE598:
 1455              	.LBE613:
 1456              	.LBB614:
 1457              	.LBB602:
  15:FilterBank.h  ****         filt_.SetRes(0.0f); // Very low for pure rolloff, no peak
 1458              		.loc 15 15 19 is_stmt 0 view .LVU446
 1459 0064 9FEDB20A 		vldr.32	s0, .L130+20
 1460 0068 3046     		mov	r0, r6
 1461              	.LBE602:
 1462              	.LBE614:
 1463              	.LBB615:
 1464              	.LBB599:
  17:FilterBank.h  ****     }
 1465              		.loc 15 17 15 view .LVU447
 1466 006a C7F84C80 		str	r8, [r7, #76]	@ float
 1467              	.LVL90:
  17:FilterBank.h  ****     }
 1468              		.loc 15 17 15 view .LVU448
 1469              	.LBE599:
 1470              	.LBE615:
 266:spiral2.0.cpp **** 
 1471              		.loc 17 266 5 is_stmt 1 view .LVU449
 1472              	.LBB616:
 1473              	.LBI600:
  13:FilterBank.h  ****     {
 1474              		.loc 15 13 10 view .LVU450
 1475              	.LBB603:
  15:FilterBank.h  ****         filt_.SetRes(0.0f); // Very low for pure rolloff, no peak
 1476              		.loc 15 15 9 view .LVU451
  15:FilterBank.h  ****         filt_.SetRes(0.0f); // Very low for pure rolloff, no peak
 1477              		.loc 15 15 19 is_stmt 0 view .LVU452
 1478 006e FFF7FEFF 		bl	_ZN7daisysp3Svf4InitEf
 1479              	.LVL91:
  16:FilterBank.h  ****         freq_ = 1000.0f;
 1480              		.loc 15 16 9 is_stmt 1 view .LVU453
  16:FilterBank.h  ****         freq_ = 1000.0f;
 1481              		.loc 15 16 21 is_stmt 0 view .LVU454
 1482 0072 9FEDB10A 		vldr.32	s0, .L130+28
 1483 0076 3046     		mov	r0, r6
 1484 0078 B04F     		ldr	r7, .L130+32
 1485 007a FFF7FEFF 		bl	_ZN7daisysp3Svf6SetResEf
 1486              	.LVL92:
  17:FilterBank.h  ****     }
 1487              		.loc 15 17 9 is_stmt 1 view .LVU455
 1488              	.LBE603:
 1489              	.LBE616:
 269:spiral2.0.cpp ****     pod.SetAudioBlockSize(48);
 1490              		.loc 17 269 27 is_stmt 0 view .LVU456
 1491 007e 0321     		movs	r1, #3
 1492 0080 2046     		mov	r0, r4
 1493              	.LBB617:
 1494              	.LBB604:
  17:FilterBank.h  ****     }
 1495              		.loc 15 17 15 view .LVU457
ARM GAS  C:\Users\CHIPVI~1\AppData\Local\Temp\ccjCx3Ca.s 			page 60


 1496 0082 C6F84C80 		str	r8, [r6, #76]	@ float
 1497              	.LVL93:
  17:FilterBank.h  ****     }
 1498              		.loc 15 17 15 view .LVU458
 1499              	.LBE604:
 1500              	.LBE617:
 269:spiral2.0.cpp ****     pod.SetAudioBlockSize(48);
 1501              		.loc 17 269 5 is_stmt 1 view .LVU459
 269:spiral2.0.cpp ****     pod.SetAudioBlockSize(48);
 1502              		.loc 17 269 27 is_stmt 0 view .LVU460
 1503 0086 FFF7FEFF 		bl	_ZN5daisy8DaisyPod18SetAudioSampleRateENS_9SaiHandle6Config10SampleRateE
 1504              	.LVL94:
 270:spiral2.0.cpp ****     pod.StartAdc();
 1505              		.loc 17 270 5 is_stmt 1 view .LVU461
 270:spiral2.0.cpp ****     pod.StartAdc();
 1506              		.loc 17 270 26 is_stmt 0 view .LVU462
 1507 008a 3021     		movs	r1, #48
 1508 008c 2046     		mov	r0, r4
 1509 008e FFF7FEFF 		bl	_ZN5daisy8DaisyPod17SetAudioBlockSizeEj
 1510              	.LVL95:
 271:spiral2.0.cpp **** 
 1511              		.loc 17 271 5 is_stmt 1 view .LVU463
 271:spiral2.0.cpp **** 
 1512              		.loc 17 271 17 is_stmt 0 view .LVU464
 1513 0092 2046     		mov	r0, r4
 1514 0094 FFF7FEFF 		bl	_ZN5daisy8DaisyPod8StartAdcEv
 1515              	.LVL96:
 274:spiral2.0.cpp ****     writeHead = 0;
 1516              		.loc 17 274 5 is_stmt 1 view .LVU465
 1517              	.LBB618:
 274:spiral2.0.cpp ****     writeHead = 0;
 1518              		.loc 17 274 23 view .LVU466
 274:spiral2.0.cpp ****     writeHead = 0;
 1519              		.loc 17 274 54 is_stmt 0 view .LVU467
 1520 0098 A94A     		ldr	r2, .L130+36
 1521 009a 2946     		mov	r1, r5
 1522 009c A948     		ldr	r0, .L130+40
 1523 009e FFF7FEFF 		bl	memset
 1524              	.LVL97:
 274:spiral2.0.cpp ****     writeHead = 0;
 1525              		.loc 17 274 73 view .LVU468
 1526 00a2 A74A     		ldr	r2, .L130+36
 1527 00a4 2946     		mov	r1, r5
 1528 00a6 A848     		ldr	r0, .L130+44
 1529 00a8 FFF7FEFF 		bl	memset
 1530              	.LVL98:
 274:spiral2.0.cpp ****     writeHead = 0;
 1531              		.loc 17 274 92 view .LVU469
 1532 00ac A44A     		ldr	r2, .L130+36
 1533 00ae 2946     		mov	r1, r5
 1534 00b0 A648     		ldr	r0, .L130+48
 1535 00b2 FFF7FEFF 		bl	memset
 1536              	.LVL99:
 274:spiral2.0.cpp ****     writeHead = 0;
 1537              		.loc 17 274 111 view .LVU470
 1538 00b6 A24A     		ldr	r2, .L130+36
 1539 00b8 2946     		mov	r1, r5
ARM GAS  C:\Users\CHIPVI~1\AppData\Local\Temp\ccjCx3Ca.s 			page 61


 1540 00ba A548     		ldr	r0, .L130+52
 1541 00bc FFF7FEFF 		bl	memset
 1542              	.LVL100:
 274:spiral2.0.cpp ****     writeHead = 0;
 1543              		.loc 17 274 111 view .LVU471
 1544              	.LBE618:
 275:spiral2.0.cpp ****     useBufferA = true;
 1545              		.loc 17 275 5 is_stmt 1 view .LVU472
 276:spiral2.0.cpp ****     inactiveBufferReady = false;
 1546              		.loc 17 276 16 is_stmt 0 view .LVU473
 1547 00c0 0122     		movs	r2, #1
 275:spiral2.0.cpp ****     useBufferA = true;
 1548              		.loc 17 275 15 view .LVU474
 1549 00c2 A449     		ldr	r1, .L130+56
 280:spiral2.0.cpp ****     pod.UpdateLeds();
 1550              		.loc 17 280 17 view .LVU475
 1551 00c4 B7EE000A 		vmov.f32	s0, #1.0e+0
 276:spiral2.0.cpp ****     inactiveBufferReady = false;
 1552              		.loc 17 276 16 view .LVU476
 1553 00c8 A34B     		ldr	r3, .L130+60
 280:spiral2.0.cpp ****     pod.UpdateLeds();
 1554              		.loc 17 280 17 view .LVU477
 1555 00ca 04F1D800 		add	r0, r4, #216
 1556 00ce 9FED9A1A 		vldr.32	s2, .L130+28
 275:spiral2.0.cpp ****     useBufferA = true;
 1557              		.loc 17 275 15 view .LVU478
 1558 00d2 0D60     		str	r5, [r1]
 276:spiral2.0.cpp ****     inactiveBufferReady = false;
 1559              		.loc 17 276 5 is_stmt 1 view .LVU479
 276:spiral2.0.cpp ****     inactiveBufferReady = false;
 1560              		.loc 17 276 16 is_stmt 0 view .LVU480
 1561 00d4 1A70     		strb	r2, [r3]
 277:spiral2.0.cpp **** 
 1562              		.loc 17 277 5 is_stmt 1 view .LVU481
 280:spiral2.0.cpp ****     pod.UpdateLeds();
 1563              		.loc 17 280 17 is_stmt 0 view .LVU482
 1564 00d6 F0EE410A 		vmov.f32	s1, s2
 277:spiral2.0.cpp **** 
 1565              		.loc 17 277 25 view .LVU483
 1566 00da A04B     		ldr	r3, .L130+64
 1567 00dc 1D70     		strb	r5, [r3]
 280:spiral2.0.cpp ****     pod.UpdateLeds();
 1568              		.loc 17 280 5 is_stmt 1 view .LVU484
 280:spiral2.0.cpp ****     pod.UpdateLeds();
 1569              		.loc 17 280 17 is_stmt 0 view .LVU485
 1570 00de FFF7FEFF 		bl	_ZN5daisy6RgbLed3SetEfff
 1571              	.LVL101:
 281:spiral2.0.cpp **** 
 1572              		.loc 17 281 5 is_stmt 1 view .LVU486
 281:spiral2.0.cpp **** 
 1573              		.loc 17 281 19 is_stmt 0 view .LVU487
 1574 00e2 2046     		mov	r0, r4
 290:spiral2.0.cpp **** 
 291:spiral2.0.cpp ****     uint32_t lastTick = 0;
 1575              		.loc 17 291 14 view .LVU488
 1576 00e4 0595     		str	r5, [sp, #20]
 281:spiral2.0.cpp **** 
ARM GAS  C:\Users\CHIPVI~1\AppData\Local\Temp\ccjCx3Ca.s 			page 62


 1577              		.loc 17 281 19 view .LVU489
 1578 00e6 FFF7FEFF 		bl	_ZN5daisy8DaisyPod10UpdateLedsEv
 1579              	.LVL102:
 284:spiral2.0.cpp ****     pod.seed.PrintLine("Audio started. Button2=trigger grain. EncClick=LevelEdit. Btn1 hold=EffectE
 1580              		.loc 17 284 5 is_stmt 1 view .LVU490
 284:spiral2.0.cpp ****     pod.seed.PrintLine("Audio started. Button2=trigger grain. EncClick=LevelEdit. Btn1 hold=EffectE
 1581              		.loc 17 284 19 is_stmt 0 view .LVU491
 1582 00ea 9D49     		ldr	r1, .L130+68
 1583 00ec 2046     		mov	r0, r4
 1584 00ee FFF7FEFF 		bl	_ZN5daisy8DaisyPod10StartAudioEPFvPKPKfPPfjE
 1585              	.LVL103:
 285:spiral2.0.cpp **** 
 1586              		.loc 17 285 5 is_stmt 1 view .LVU492
 1587              	.LBB619:
 1588              	.LBI619:
 126:../../libDaisy/src/daisy_seed.h ****     {
 1589              		.loc 10 126 17 view .LVU493
 1590              	.LBB620:
 128:../../libDaisy/src/daisy_seed.h ****     }
 1591              		.loc 10 128 23 is_stmt 0 view .LVU494
 1592 00f2 9C48     		ldr	r0, .L130+72
 1593 00f4 FFF7FEFF 		bl	_ZN5daisy6LoggerILNS_17LoggerDestinationE1EE9PrintLineEPKcz
 1594              	.LVL104:
 128:../../libDaisy/src/daisy_seed.h ****     }
 1595              		.loc 10 128 23 view .LVU495
 1596              	.LBE620:
 1597              	.LBE619:
 288:spiral2.0.cpp ****     filtCut_sm = pod.knob1.Value();
 1598              		.loc 17 288 5 is_stmt 1 view .LVU496
 289:spiral2.0.cpp **** 
 1599              		.loc 17 289 16 is_stmt 0 view .LVU497
 1600 00f8 636F     		ldr	r3, [r4, #116]	@ float
 288:spiral2.0.cpp ****     filtCut_sm = pod.knob1.Value();
 1601              		.loc 17 288 27 view .LVU498
 1602 00fa 9B4A     		ldr	r2, .L130+76
 289:spiral2.0.cpp **** 
 1603              		.loc 17 289 16 view .LVU499
 1604 00fc CBF80030 		str	r3, [fp]	@ float
 288:spiral2.0.cpp ****     filtCut_sm = pod.knob1.Value();
 1605              		.loc 17 288 49 view .LVU500
 1606 0100 9A4B     		ldr	r3, .L130+80
 1607 0102 1B78     		ldrb	r3, [r3]	@ zero_extendqisi2
 288:spiral2.0.cpp ****     filtCut_sm = pod.knob1.Value();
 1608              		.loc 17 288 27 view .LVU501
 1609 0104 52F82330 		ldr	r3, [r2, r3, lsl #2]
 1610 0108 994A     		ldr	r2, .L130+84
 1611 010a 1360     		str	r3, [r2]
 289:spiral2.0.cpp **** 
 1612              		.loc 17 289 5 is_stmt 1 view .LVU502
 1613              	.LVL105:
 1614              	.LBB621:
 1615              	.LBI621:
  24:../../libDaisy/src/hid/ctrl.h **** 
  25:../../libDaisy/src/hid/ctrl.h ****     /** 
  26:../../libDaisy/src/hid/ctrl.h ****     Initializes the control
  27:../../libDaisy/src/hid/ctrl.h ****     \param *adcptr is a pointer to the raw adc read value -- This can be acquired with dsy_adc_get_
  28:../../libDaisy/src/hid/ctrl.h ****     \param sr is the samplerate in Hz that the Process function will be called at.
ARM GAS  C:\Users\CHIPVI~1\AppData\Local\Temp\ccjCx3Ca.s 			page 63


  29:../../libDaisy/src/hid/ctrl.h ****     \param flip determines whether the input is flipped (i.e. 1.f - input) or not before being proc
  30:../../libDaisy/src/hid/ctrl.h ****     \param invert determines whether the input is inverted (i.e. -1.f * input) or note before being
  31:../../libDaisy/src/hid/ctrl.h ****     \param slew_seconds is the slew time in seconds that it takes for the control to change to a ne
  32:../../libDaisy/src/hid/ctrl.h ****     */
  33:../../libDaisy/src/hid/ctrl.h ****     void Init(uint16_t *adcptr,
  34:../../libDaisy/src/hid/ctrl.h ****               float     sr,
  35:../../libDaisy/src/hid/ctrl.h ****               bool      flip         = false,
  36:../../libDaisy/src/hid/ctrl.h ****               bool      invert       = false,
  37:../../libDaisy/src/hid/ctrl.h ****               float     slew_seconds = 0.002f);
  38:../../libDaisy/src/hid/ctrl.h **** 
  39:../../libDaisy/src/hid/ctrl.h ****     /** 
  40:../../libDaisy/src/hid/ctrl.h ****     This Initializes the AnalogControl for a -5V to 5V inverted input
  41:../../libDaisy/src/hid/ctrl.h ****     All of the Init details are the same otherwise
  42:../../libDaisy/src/hid/ctrl.h ****     \param *adcptr Pointer to analog digital converter
  43:../../libDaisy/src/hid/ctrl.h ****     \param sr Audio engine sample rate
  44:../../libDaisy/src/hid/ctrl.h ****     */
  45:../../libDaisy/src/hid/ctrl.h ****     void InitBipolarCv(uint16_t *adcptr, float sr);
  46:../../libDaisy/src/hid/ctrl.h **** 
  47:../../libDaisy/src/hid/ctrl.h ****     /** 
  48:../../libDaisy/src/hid/ctrl.h ****     Filters, and transforms a raw ADC read into a normalized range.
  49:../../libDaisy/src/hid/ctrl.h ****     this should be called at the rate of specified by samplerate at Init time.   
  50:../../libDaisy/src/hid/ctrl.h ****     Default Initializations will return 0.0 -> 1.0
  51:../../libDaisy/src/hid/ctrl.h ****     Bi-polar CV inputs will return -1.0 -> 1.0
  52:../../libDaisy/src/hid/ctrl.h ****     */
  53:../../libDaisy/src/hid/ctrl.h ****     float Process();
  54:../../libDaisy/src/hid/ctrl.h **** 
  55:../../libDaisy/src/hid/ctrl.h ****     /** Returns the current stored value, without reprocessing */
  56:../../libDaisy/src/hid/ctrl.h ****     inline float Value() const { return val_; }
 1616              		.loc 8 56 18 view .LVU503
 1617              	.LBB622:
 1618              		.loc 8 56 34 view .LVU504
 1619              		.loc 8 56 34 is_stmt 0 view .LVU505
 1620              	.LBE622:
 1621              	.LBE621:
 1622              		.loc 17 291 5 is_stmt 1 view .LVU506
 1623              		.loc 17 291 5 is_stmt 0 view .LVU507
 1624 010c 9CE0     		b	.L96
 1625              	.LVL106:
 1626              	.L128:
 1627              	.LBB623:
 1628              	.LBB624:
 1629              	.LBB625:
 292:spiral2.0.cpp ****     static int32_t enc_acc = 0; // semitone accumulator for pitch
 293:spiral2.0.cpp **** 
 294:spiral2.0.cpp ****     while(1)
 295:spiral2.0.cpp ****     {
 296:spiral2.0.cpp ****         pod.ProcessAllControls();
 297:spiral2.0.cpp **** 
 298:spiral2.0.cpp ****         // === ENC CLICK: toggle Level Edit (mutually exclusive with Effect Edit) ===
 299:spiral2.0.cpp ****         if(pod.encoder.RisingEdge())
 300:spiral2.0.cpp ****         {
 301:spiral2.0.cpp ****             g_level_edit = !g_level_edit;
 302:spiral2.0.cpp ****             if(g_level_edit)
 303:spiral2.0.cpp ****                 editEffectsMode = false; // make modes exclusive
 304:spiral2.0.cpp ****             pod.seed.PrintLine("LevelEdit=%d EffectEdit=%d", g_level_edit ? 1 : 0, editEffectsMode 
 305:spiral2.0.cpp ****         }
 306:spiral2.0.cpp **** 
ARM GAS  C:\Users\CHIPVI~1\AppData\Local\Temp\ccjCx3Ca.s 			page 64


 307:spiral2.0.cpp ****         // While Level-Edit is ON, Knob2 sets wet/dry LEVEL (smoothed)
 308:spiral2.0.cpp ****         if(g_level_edit)
 309:spiral2.0.cpp ****         {
 310:spiral2.0.cpp ****             float g_target = pod.knob2.Value();
 311:spiral2.0.cpp ****             g_level_sm += (g_target - g_level_sm) * LEVEL_SMOOTH_ALPHA;
 312:spiral2.0.cpp ****             g_level = g_level_sm;
 313:spiral2.0.cpp ****         }
 314:spiral2.0.cpp **** 
 315:spiral2.0.cpp ****         // === Button1 long/short press handling ===
 316:spiral2.0.cpp ****         static bool btn1_was_pressed = false;
 317:spiral2.0.cpp ****         static uint32_t btn1_press_start = 0;
 318:spiral2.0.cpp ****         static bool btn1_long_handled = false;
 319:spiral2.0.cpp **** 
 320:spiral2.0.cpp ****         if(pod.button1.Pressed())
 321:spiral2.0.cpp ****         {
 322:spiral2.0.cpp ****             if(!btn1_was_pressed)
 323:spiral2.0.cpp ****             {
 324:spiral2.0.cpp ****                 btn1_was_pressed = true;
 325:spiral2.0.cpp ****                 btn1_press_start = System::GetNow();
 326:spiral2.0.cpp ****                 btn1_long_handled = false;
 327:spiral2.0.cpp ****             }
 328:spiral2.0.cpp ****             else
 329:spiral2.0.cpp ****             {
 330:spiral2.0.cpp ****                 if(!btn1_long_handled && (System::GetNow() - btn1_press_start >= BTN1_HOLD_MS))
 331:spiral2.0.cpp ****                 {
 332:spiral2.0.cpp ****                     editEffectsMode = !editEffectsMode;
 333:spiral2.0.cpp ****                     if(editEffectsMode) g_level_edit = false;
 334:spiral2.0.cpp ****                     btn1_long_handled = true;
 335:spiral2.0.cpp ****                     pod.seed.PrintLine("EffectEdit=%d LevelEdit=%d", editEffectsMode ? 1 : 0, g_lev
 336:spiral2.0.cpp ****                 }
 337:spiral2.0.cpp ****             }
 338:spiral2.0.cpp ****         }
 339:spiral2.0.cpp ****         else
 340:spiral2.0.cpp ****         {
 341:spiral2.0.cpp ****             if(btn1_was_pressed)
 342:spiral2.0.cpp ****             {
 343:spiral2.0.cpp ****                 if(!btn1_long_handled)
 344:spiral2.0.cpp ****                 {
 345:spiral2.0.cpp ****                     bufferLengthIndex = (bufferLengthIndex + 1) % 3;
 346:spiral2.0.cpp ****                     currentBufferLengthMs = bufferLengthMsTable[bufferLengthIndex];
 347:spiral2.0.cpp ****                     pod.seed.PrintLine("*** BUFFER LENGTH: %u ms ***", currentBufferLengthMs);
 348:spiral2.0.cpp ****                 }
 349:spiral2.0.cpp ****             }
 350:spiral2.0.cpp ****             btn1_was_pressed = false;
 351:spiral2.0.cpp ****             btn1_press_start = 0;
 352:spiral2.0.cpp ****             btn1_long_handled = false;
 353:spiral2.0.cpp ****         }
 354:spiral2.0.cpp **** 
 355:spiral2.0.cpp ****         // === BTN2: trigger single grain ===
 356:spiral2.0.cpp ****         if(pod.button2.RisingEdge())
 357:spiral2.0.cpp ****         {
 358:spiral2.0.cpp ****             // size: knob1 -> 40ms..1000ms
 359:spiral2.0.cpp ****             float vsize = pod.knob1.Value(); // 0..1
 360:spiral2.0.cpp ****             float ms = 40.0f + vsize * (1000.0f - 40.0f);
 361:spiral2.0.cpp ****             uint32_t lengthSamples = (uint32_t)(ms * (pod.AudioSampleRate() / 1000.0f));
 362:spiral2.0.cpp ****             if(lengthSamples < 2) lengthSamples = 2;
 363:spiral2.0.cpp **** 
ARM GAS  C:\Users\CHIPVI~1\AppData\Local\Temp\ccjCx3Ca.s 			page 65


 364:spiral2.0.cpp ****             // pos: knob2 -> relative offset in current window, but computed against the last compl
 365:spiral2.0.cpp ****             float vpos = pod.knob2.Value();
 366:spiral2.0.cpp ****             uint32_t windowSamples = (uint32_t)((float)currentBufferLengthMs * (pod.AudioSampleRate
 367:spiral2.0.cpp ****             if(windowSamples < 2) windowSamples = 2;
 368:spiral2.0.cpp ****             uint32_t offset = (uint32_t)(vpos * (float)windowSamples);
 369:spiral2.0.cpp **** 
 370:spiral2.0.cpp ****             uint32_t startIdx = 0;
 371:spiral2.0.cpp ****             if(inactiveBufferReady)
 372:spiral2.0.cpp ****             {
 373:spiral2.0.cpp ****                 // map offset so knob=0 -> 'most recent sample in snapshot'
 374:spiral2.0.cpp ****                 // most recent sample index in snapshot is inactiveTailIndex (BUFFER_SIZE-1 normall
 375:spiral2.0.cpp ****                 // start = (inactiveTailIndex + 1 + offset) % BUFFER_SIZE  (this maps similar to pr
 376:spiral2.0.cpp ****                 uint32_t base = (inactiveTailIndex + 1) % BUFFER_SIZE;
 377:spiral2.0.cpp ****                 startIdx = (base + offset) % BUFFER_SIZE;
 378:spiral2.0.cpp ****             }
 379:spiral2.0.cpp ****             else
 380:spiral2.0.cpp ****             {
 381:spiral2.0.cpp ****                 // fallback to current writeHead if no snapshot yet (early boot)
 382:spiral2.0.cpp ****                 uint32_t offset2 = (uint32_t)(vpos * (float)BUFFER_SIZE);
 383:spiral2.0.cpp ****                 uint32_t s = writeHead + offset2;
 384:spiral2.0.cpp ****                 if(s >= BUFFER_SIZE) s %= BUFFER_SIZE;
 385:spiral2.0.cpp ****                 startIdx = s;
 386:spiral2.0.cpp ****             }
 387:spiral2.0.cpp **** 
 388:spiral2.0.cpp ****             float pitchRatio = powf(2.0f, (float)enc_acc / 12.0f);
 389:spiral2.0.cpp **** 
 390:spiral2.0.cpp ****             triggerGrain(startIdx, lengthSamples, pitchRatio, 1.0f, 0.5f);
 391:spiral2.0.cpp **** 
 392:spiral2.0.cpp ****             pod.seed.PrintLine("Grain: start=%u len=%u semis=%d", startIdx, lengthSamples, enc_acc)
 393:spiral2.0.cpp ****         }
 394:spiral2.0.cpp **** 
 395:spiral2.0.cpp ****         // === ENCODER HANDLING: adjust pitch semitones (only when not editing filter) ===
 396:spiral2.0.cpp ****         if(!editEffectsMode)
 397:spiral2.0.cpp ****         {
 398:spiral2.0.cpp ****             int32_t inc = pod.encoder.Increment();
 1630              		.loc 17 398 13 is_stmt 1 view .LVU508
 1631              	.LBB626:
 1632              	.LBI626:
  22:../../libDaisy/src/hid/encoder.h **** 
  23:../../libDaisy/src/hid/encoder.h ****     /** Initializes the encoder with the specified hardware pins.
  24:../../libDaisy/src/hid/encoder.h ****      * Update rate is to be deprecated in a future release
  25:../../libDaisy/src/hid/encoder.h ****      */
  26:../../libDaisy/src/hid/encoder.h ****     void Init(dsy_gpio_pin a,
  27:../../libDaisy/src/hid/encoder.h ****               dsy_gpio_pin b,
  28:../../libDaisy/src/hid/encoder.h ****               dsy_gpio_pin click,
  29:../../libDaisy/src/hid/encoder.h ****               float        update_rate = 0.f);
  30:../../libDaisy/src/hid/encoder.h ****     /** Called at update_rate to debounce and handle timing for the switch.
  31:../../libDaisy/src/hid/encoder.h ****      * In order for events not to be missed, its important that the Edge/Pressed checks be made at 
  32:../../libDaisy/src/hid/encoder.h ****      */
  33:../../libDaisy/src/hid/encoder.h ****     void Debounce();
  34:../../libDaisy/src/hid/encoder.h **** 
  35:../../libDaisy/src/hid/encoder.h ****     /** Returns +1 if the encoder was turned clockwise, -1 if it was turned counter-clockwise, or 0
  36:../../libDaisy/src/hid/encoder.h ****     inline int32_t Increment() const { return updated_ ? inc_ : 0; }
 1633              		.loc 9 36 20 view .LVU509
 1634              	.LBB627:
 1635              		.loc 9 36 40 view .LVU510
 1636              		.loc 9 36 56 is_stmt 0 view .LVU511
ARM GAS  C:\Users\CHIPVI~1\AppData\Local\Temp\ccjCx3Ca.s 			page 66


 1637 010e 94F84430 		ldrb	r3, [r4, #68]	@ zero_extendqisi2
 1638 0112 002B     		cmp	r3, #0
 1639 0114 00F05681 		beq	.L88
 1640 0118 616E     		ldr	r1, [r4, #100]
 1641              	.LVL107:
 1642              		.loc 9 36 56 view .LVU512
 1643              	.LBE627:
 1644              	.LBE626:
 399:spiral2.0.cpp ****             if(inc != 0) {
 1645              		.loc 17 399 13 is_stmt 1 view .LVU513
 1646 011a 0029     		cmp	r1, #0
 1647 011c 00F05281 		beq	.L88
 400:spiral2.0.cpp ****                 enc_acc += inc;
 1648              		.loc 17 400 17 view .LVU514
 1649              		.loc 17 400 25 is_stmt 0 view .LVU515
 1650 0120 944A     		ldr	r2, .L130+88
 1651 0122 1368     		ldr	r3, [r2]
 1652 0124 1944     		add	r1, r1, r3
 1653              	.LVL108:
 401:spiral2.0.cpp ****                 if(enc_acc > 24) enc_acc = 24;
 1654              		.loc 17 401 17 is_stmt 1 view .LVU516
 1655 0126 1829     		cmp	r1, #24
 1656 0128 40F33682 		ble	.L89
 1657              		.loc 17 401 34 discriminator 1 view .LVU517
 1658              		.loc 17 401 42 is_stmt 0 discriminator 1 view .LVU518
 1659 012c 1821     		movs	r1, #24
 1660 012e 1160     		str	r1, [r2]
 402:spiral2.0.cpp ****                 if(enc_acc < -24) enc_acc = -24;
 1661              		.loc 17 402 17 is_stmt 1 discriminator 1 view .LVU519
 1662              	.L90:
 403:spiral2.0.cpp ****                 pod.seed.PrintLine("Pitch: %d semitones", enc_acc);
 1663              		.loc 17 403 17 view .LVU520
 1664              	.LVL109:
 1665              	.LBB628:
 1666              	.LBI628:
 126:../../libDaisy/src/daisy_seed.h ****     {
 1667              		.loc 10 126 17 view .LVU521
 1668              	.LBB629:
 128:../../libDaisy/src/daisy_seed.h ****     }
 1669              		.loc 10 128 23 is_stmt 0 view .LVU522
 1670 0130 9148     		ldr	r0, .L130+92
 1671 0132 FFF7FEFF 		bl	_ZN5daisy6LoggerILNS_17LoggerDestinationE1EE9PrintLineEPKcz
 1672              	.LVL110:
 128:../../libDaisy/src/daisy_seed.h ****     }
 1673              		.loc 10 128 23 view .LVU523
 1674              	.LBE629:
 1675              	.LBE628:
 1676              	.LBE625:
 1677              	.LBE624:
 404:spiral2.0.cpp ****             }
 405:spiral2.0.cpp ****         }
 406:spiral2.0.cpp **** 
 407:spiral2.0.cpp ****         // === Effect Edit mapping (filter) ===
 408:spiral2.0.cpp ****         float target_filt = filtCut_sm;
 1678              		.loc 17 408 9 is_stmt 1 view .LVU524
 409:spiral2.0.cpp ****         if(editEffectsMode)
 1679              		.loc 17 409 9 is_stmt 0 view .LVU525
ARM GAS  C:\Users\CHIPVI~1\AppData\Local\Temp\ccjCx3Ca.s 			page 67


 1680 0136 914B     		ldr	r3, .L130+96
 408:spiral2.0.cpp ****         if(editEffectsMode)
 1681              		.loc 17 408 15 view .LVU526
 1682 0138 DBED007A 		vldr.32	s15, [fp]
 1683              	.LVL111:
 1684              		.loc 17 409 9 is_stmt 1 view .LVU527
 1685 013c 1B78     		ldrb	r3, [r3]	@ zero_extendqisi2
 1686 013e 002B     		cmp	r3, #0
 1687 0140 40F0D080 		bne	.L100
 1688              	.L92:
 410:spiral2.0.cpp ****         {
 411:spiral2.0.cpp ****             target_filt = pod.knob1.Value();
 412:spiral2.0.cpp ****         }
 413:spiral2.0.cpp **** 
 414:spiral2.0.cpp ****         // smooth and publish to audio thread
 415:spiral2.0.cpp ****         filtCut_sm += (target_filt - filtCut_sm) * SMOOTH_ALPHA;
 1689              		.loc 17 415 9 view .LVU528
 1690              		.loc 17 415 36 is_stmt 0 view .LVU529
 1691 0144 77EEE76A 		vsub.f32	s13, s15, s15
 1692              		.loc 17 415 20 view .LVU530
 1693 0148 9FED8D7A 		vldr.32	s14, .L130+100
 416:spiral2.0.cpp ****         filtCut_shared = filtCut_sm;   // publish safely
 1694              		.loc 17 416 24 view .LVU531
 1695 014c 8D4B     		ldr	r3, .L130+104
 415:spiral2.0.cpp ****         filtCut_shared = filtCut_sm;   // publish safely
 1696              		.loc 17 415 20 view .LVU532
 1697 014e E6EE877A 		vfma.f32	s15, s13, s14
 1698              	.LVL112:
 1699              		.loc 17 416 24 view .LVU533
 1700 0152 C3ED007A 		vstr.32	s15, [r3]
 417:spiral2.0.cpp **** 
 418:spiral2.0.cpp ****         // === LED feedback ===
 419:spiral2.0.cpp ****         if(g_level_edit)
 1701              		.loc 17 419 9 view .LVU534
 1702 0156 3B78     		ldrb	r3, [r7]	@ zero_extendqisi2
 415:spiral2.0.cpp ****         filtCut_shared = filtCut_sm;   // publish safely
 1703              		.loc 17 415 20 view .LVU535
 1704 0158 CBED007A 		vstr.32	s15, [fp]
 1705              	.LVL113:
 416:spiral2.0.cpp **** 
 1706              		.loc 17 416 9 is_stmt 1 view .LVU536
 1707              		.loc 17 419 9 view .LVU537
 1708 015c 002B     		cmp	r3, #0
 1709 015e 40F05781 		bne	.L97
 420:spiral2.0.cpp ****             pod.led1.Set(0.0f, 0.0f, 1.0f); // blue
 421:spiral2.0.cpp ****         else if(editEffectsMode)
 422:spiral2.0.cpp ****             pod.led1.Set(0.0f, 1.0f, 0.0f); // green
 423:spiral2.0.cpp ****         else
 424:spiral2.0.cpp ****             pod.led1.Set(1.0f, 0.0f, 0.0f); // red
 1710              		.loc 17 424 13 view .LVU538
 1711              		.loc 17 424 25 is_stmt 0 view .LVU539
 1712 0162 9FED751A 		vldr.32	s2, .L130+28
 1713 0166 B7EE000A 		vmov.f32	s0, #1.0e+0
 1714 016a 8748     		ldr	r0, .L130+108
 1715 016c F0EE410A 		vmov.f32	s1, s2
 1716 0170 FFF7FEFF 		bl	_ZN5daisy6RgbLed3SetEfff
 1717              	.LVL114:
ARM GAS  C:\Users\CHIPVI~1\AppData\Local\Temp\ccjCx3Ca.s 			page 68


 1718              	.L94:
 425:spiral2.0.cpp ****         pod.UpdateLeds();
 1719              		.loc 17 425 9 is_stmt 1 view .LVU540
 1720              		.loc 17 425 23 is_stmt 0 view .LVU541
 1721 0174 6948     		ldr	r0, .L130
 1722 0176 FFF7FEFF 		bl	_ZN5daisy8DaisyPod10UpdateLedsEv
 1723              	.LVL115:
 426:spiral2.0.cpp **** 
 427:spiral2.0.cpp ****         // periodic profiler print
 428:spiral2.0.cpp ****         uint32_t t = System::GetNow();
 1724              		.loc 17 428 9 is_stmt 1 view .LVU542
 1725              		.loc 17 428 36 is_stmt 0 view .LVU543
 1726 017a FFF7FEFF 		bl	_ZN5daisy6System6GetNowEv
 1727              	.LVL116:
 429:spiral2.0.cpp ****         if(t - lastTick >= 1000)
 1728              		.loc 17 429 9 is_stmt 1 view .LVU544
 1729              	.LBB631:
 1730              		.loc 17 429 14 is_stmt 0 view .LVU545
 1731 017e 059B     		ldr	r3, [sp, #20]
 1732 0180 C31A     		subs	r3, r0, r3
 1733              		.loc 17 429 9 view .LVU546
 1734 0182 B3F57A7F 		cmp	r3, #1000
 1735 0186 5CD3     		bcc	.L95
 1736              	.LBB632:
 430:spiral2.0.cpp ****         {
 431:spiral2.0.cpp ****             lastTick = t;
 1737              		.loc 17 431 13 is_stmt 1 view .LVU547
 1738              	.LVL117:
 432:spiral2.0.cpp ****             uint32_t maxc  = audio_max_cycles;
 1739              		.loc 17 432 13 view .LVU548
 1740              		.loc 17 432 30 is_stmt 0 view .LVU549
 1741 0188 804B     		ldr	r3, .L130+112
 433:spiral2.0.cpp ****             uint32_t lastc = audio_last_cycles;
 434:spiral2.0.cpp ****             uint32_t block = pod.AudioBlockSize();
 435:spiral2.0.cpp ****             uint64_t cps_x100 = (uint64_t)maxc * 100ULL / (uint64_t)block;
 1742              		.loc 17 435 59 view .LVU550
 1743 018a 4FF0000A 		mov	r10, #0
 433:spiral2.0.cpp ****             uint32_t lastc = audio_last_cycles;
 1744              		.loc 17 433 30 view .LVU551
 1745 018e 804A     		ldr	r2, .L130+116
 432:spiral2.0.cpp ****             uint32_t maxc  = audio_max_cycles;
 1746              		.loc 17 432 30 view .LVU552
 1747 0190 1D68     		ldr	r5, [r3]
 1748              	.LVL118:
 433:spiral2.0.cpp ****             uint32_t lastc = audio_last_cycles;
 1749              		.loc 17 433 13 is_stmt 1 view .LVU553
 434:spiral2.0.cpp ****             uint64_t cps_x100 = (uint64_t)maxc * 100ULL / (uint64_t)block;
 1750              		.loc 17 434 13 view .LVU554
 433:spiral2.0.cpp ****             uint32_t lastc = audio_last_cycles;
 1751              		.loc 17 433 30 is_stmt 0 view .LVU555
 1752 0192 1268     		ldr	r2, [r2]
 1753              	.LVL119:
 431:spiral2.0.cpp ****             uint32_t maxc  = audio_max_cycles;
 1754              		.loc 17 431 22 view .LVU556
 1755 0194 0590     		str	r0, [sp, #20]
 434:spiral2.0.cpp ****             uint64_t cps_x100 = (uint64_t)maxc * 100ULL / (uint64_t)block;
 1756              		.loc 17 434 48 view .LVU557
ARM GAS  C:\Users\CHIPVI~1\AppData\Local\Temp\ccjCx3Ca.s 			page 69


 1757 0196 6148     		ldr	r0, .L130
 1758              	.LVL120:
 433:spiral2.0.cpp ****             uint32_t lastc = audio_last_cycles;
 1759              		.loc 17 433 30 view .LVU558
 1760 0198 0692     		str	r2, [sp, #24]
 434:spiral2.0.cpp ****             uint64_t cps_x100 = (uint64_t)maxc * 100ULL / (uint64_t)block;
 1761              		.loc 17 434 48 view .LVU559
 1762 019a FFF7FEFF 		bl	_ZN5daisy8DaisyPod14AudioBlockSizeEv
 1763              	.LVL121:
 1764              		.loc 17 435 48 view .LVU560
 1765 019e 6421     		movs	r1, #100
 434:spiral2.0.cpp ****             uint64_t cps_x100 = (uint64_t)maxc * 100ULL / (uint64_t)block;
 1766              		.loc 17 434 48 view .LVU561
 1767 01a0 0646     		mov	r6, r0
 1768              	.LVL122:
 1769              		.loc 17 435 13 is_stmt 1 view .LVU562
 1770              		.loc 17 435 22 is_stmt 0 view .LVU563
 1771 01a2 5346     		mov	r3, r10
 1772 01a4 3246     		mov	r2, r6
 1773 01a6 A5FB0101 		umull	r0, r1, r5, r1
 1774              	.LVL123:
 1775              		.loc 17 435 22 view .LVU564
 1776 01aa FFF7FEFF 		bl	__aeabi_uldivmod
 1777              	.LVL124:
 436:spiral2.0.cpp ****             const uint64_t CPU_FREQ = 480000000ULL;
 1778              		.loc 17 436 13 is_stmt 1 view .LVU565
 437:spiral2.0.cpp ****             uint64_t cpu_pct_x100 = ((uint64_t)maxc * (uint64_t)pod.AudioSampleRate() * 10000ULL)
 1779              		.loc 17 437 13 view .LVU566
 435:spiral2.0.cpp ****             const uint64_t CPU_FREQ = 480000000ULL;
 1780              		.loc 17 435 22 is_stmt 0 view .LVU567
 1781 01ae 0790     		str	r0, [sp, #28]
 1782              	.LVL125:
 1783              		.loc 17 437 84 view .LVU568
 1784 01b0 5A48     		ldr	r0, .L130
 1785 01b2 FFF7FEFF 		bl	_ZN5daisy8DaisyPod15AudioSampleRateEv
 1786              	.LVL126:
 1787 01b6 10EE100A 		vmov	r0, s0
 1788              		.loc 17 437 55 view .LVU569
 1789 01ba FFF7FEFF 		bl	__aeabi_f2ulz
 1790              	.LVL127:
 1791              		.loc 17 437 87 view .LVU570
 1792 01be A0FB0520 		umull	r2, r0, r0, r5
 438:spiral2.0.cpp ****                                     / ((uint64_t)block * CPU_FREQ);
 1793              		.loc 17 438 56 view .LVU571
 1794 01c2 744B     		ldr	r3, .L130+120
 437:spiral2.0.cpp ****             uint64_t cpu_pct_x100 = ((uint64_t)maxc * (uint64_t)pod.AudioSampleRate() * 10000ULL)
 1795              		.loc 17 437 87 view .LVU572
 1796 01c4 05FB0101 		mla	r1, r5, r1, r0
 1797 01c8 9000     		lsls	r0, r2, #2
 1798 01ca 4FEA810C 		lsl	ip, r1, #2
 1799 01ce 8018     		adds	r0, r0, r2
 1800 01d0 4CEA927C 		orr	ip, ip, r2, lsr #30
 1801 01d4 41EB0C0C 		adc	ip, r1, ip
 1802 01d8 4FEACC0C 		lsl	ip, ip, #3
 1803 01dc 4CEA507C 		orr	ip, ip, r0, lsr #29
 1804 01e0 C000     		lsls	r0, r0, #3
 1805 01e2 801A     		subs	r0, r0, r2
ARM GAS  C:\Users\CHIPVI~1\AppData\Local\Temp\ccjCx3Ca.s 			page 70


 1806 01e4 6CEB010C 		sbc	ip, ip, r1
 1807 01e8 4FEA0C1C 		lsl	ip, ip, #4
 1808 01ec 4CEA107C 		orr	ip, ip, r0, lsr #28
 1809 01f0 0001     		lsls	r0, r0, #4
 1810 01f2 8018     		adds	r0, r0, r2
 1811              		.loc 17 438 66 view .LVU573
 1812 01f4 A6FB0323 		umull	r2, r3, r6, r3
 437:spiral2.0.cpp ****             uint64_t cpu_pct_x100 = ((uint64_t)maxc * (uint64_t)pod.AudioSampleRate() * 10000ULL)
 1813              		.loc 17 437 87 view .LVU574
 1814 01f8 41EB0C01 		adc	r1, r1, ip
 1815 01fc 0901     		lsls	r1, r1, #4
 1816              		.loc 17 438 66 view .LVU575
 1817 01fe 41EA1071 		orr	r1, r1, r0, lsr #28
 1818 0202 0001     		lsls	r0, r0, #4
 1819 0204 FFF7FEFF 		bl	__aeabi_uldivmod
 1820              	.LVL128:
 1821 0208 8146     		mov	r9, r0
 1822 020a 8846     		mov	r8, r1
 1823              	.LVL129:
 439:spiral2.0.cpp ****             uint64_t cpu_int = cpu_pct_x100 / 100ULL;
 1824              		.loc 17 439 13 is_stmt 1 view .LVU576
 440:spiral2.0.cpp ****             uint64_t cpu_frac = cpu_pct_x100 % 100ULL;
 1825              		.loc 17 440 13 view .LVU577
 441:spiral2.0.cpp **** 
 442:spiral2.0.cpp ****             pod.seed.PrintLine( "Audio cycles last=%lu max=%lu block=%lu cps_x100=%lu cpu=%lu.%02lu
 1826              		.loc 17 442 13 view .LVU578
 1827              	.LBB633:
 1828              	.LBI633:
 126:../../libDaisy/src/daisy_seed.h ****     {
 1829              		.loc 10 126 17 view .LVU579
 1830              	.LBE633:
 440:spiral2.0.cpp ****             uint64_t cpu_frac = cpu_pct_x100 % 100ULL;
 1831              		.loc 17 440 22 is_stmt 0 view .LVU580
 1832 020c 6422     		movs	r2, #100
 1833 020e 0023     		movs	r3, #0
 1834 0210 FFF7FEFF 		bl	__aeabi_uldivmod
 1835              	.LVL130:
 439:spiral2.0.cpp ****             uint64_t cpu_frac = cpu_pct_x100 % 100ULL;
 1836              		.loc 17 439 22 view .LVU581
 1837 0214 0023     		movs	r3, #0
 1838              		.loc 17 442 31 view .LVU582
 1839 0216 0292     		str	r2, [sp, #8]
 439:spiral2.0.cpp ****             uint64_t cpu_frac = cpu_pct_x100 % 100ULL;
 1840              		.loc 17 439 22 view .LVU583
 1841 0218 4846     		mov	r0, r9
 1842 021a 6422     		movs	r2, #100
 1843 021c 4146     		mov	r1, r8
 1844 021e FFF7FEFF 		bl	__aeabi_uldivmod
 1845              	.LVL131:
 1846              		.loc 17 442 31 view .LVU584
 1847 0222 079A     		ldr	r2, [sp, #28]
 1848              	.LBB636:
 1849              	.LBB634:
 128:../../libDaisy/src/daisy_seed.h ****     }
 1850              		.loc 10 128 23 view .LVU585
 1851 0224 3346     		mov	r3, r6
 1852 0226 0699     		ldr	r1, [sp, #24]
ARM GAS  C:\Users\CHIPVI~1\AppData\Local\Temp\ccjCx3Ca.s 			page 71


 1853              	.LBE634:
 1854              	.LBE636:
 1855              		.loc 17 442 31 view .LVU586
 1856 0228 CDE90020 		strd	r2, r0, [sp]
 1857              	.LBB637:
 1858              	.LBB635:
 128:../../libDaisy/src/daisy_seed.h ****     }
 1859              		.loc 10 128 23 view .LVU587
 1860 022c 2A46     		mov	r2, r5
 1861 022e 5A48     		ldr	r0, .L130+124
 1862 0230 FFF7FEFF 		bl	_ZN5daisy6LoggerILNS_17LoggerDestinationE1EE9PrintLineEPKcz
 1863              	.LVL132:
 128:../../libDaisy/src/daisy_seed.h ****     }
 1864              		.loc 10 128 23 view .LVU588
 1865              	.LBE635:
 1866              	.LBE637:
 443:spiral2.0.cpp ****             (unsigned long)lastc,
 444:spiral2.0.cpp ****             (unsigned long)maxc, 
 445:spiral2.0.cpp ****             (unsigned long)block, 
 446:spiral2.0.cpp ****             (unsigned long)cps_x100, 
 447:spiral2.0.cpp ****             (unsigned long)cpu_int, 
 448:spiral2.0.cpp ****             (unsigned long)cpu_frac); 
 449:spiral2.0.cpp ****             audio_max_cycles = 0; 
 1867              		.loc 17 449 13 is_stmt 1 view .LVU589
 1868              		.loc 17 449 30 is_stmt 0 view .LVU590
 1869 0234 554B     		ldr	r3, .L130+112
 450:spiral2.0.cpp ****             audio_min_cycles = UINT32_MAX;
 1870              		.loc 17 450 30 view .LVU591
 1871 0236 594A     		ldr	r2, .L130+128
 449:spiral2.0.cpp ****             audio_min_cycles = UINT32_MAX;
 1872              		.loc 17 449 30 view .LVU592
 1873 0238 C3F800A0 		str	r10, [r3]
 1874              		.loc 17 450 13 is_stmt 1 view .LVU593
 1875              		.loc 17 450 30 is_stmt 0 view .LVU594
 1876 023c 4FF0FF33 		mov	r3, #-1
 1877 0240 1360     		str	r3, [r2]
 1878              	.LVL133:
 1879              	.L95:
 1880              		.loc 17 450 30 view .LVU595
 1881              	.LBE632:
 1882              	.LBE631:
 451:spiral2.0.cpp ****          }
 452:spiral2.0.cpp ****         System::Delay(1);
 1883              		.loc 17 452 9 is_stmt 1 view .LVU596
 1884              		.loc 17 452 22 is_stmt 0 view .LVU597
 1885 0242 0120     		movs	r0, #1
 1886 0244 FFF7FEFF 		bl	_ZN5daisy6System5DelayEm
 1887              	.LVL134:
 1888              	.LBE623:
 294:spiral2.0.cpp ****     {
 1889              		.loc 17 294 5 is_stmt 1 view .LVU598
 1890              	.L96:
 292:spiral2.0.cpp **** 
 1891              		.loc 17 292 5 view .LVU599
 294:spiral2.0.cpp ****     {
 1892              		.loc 17 294 5 view .LVU600
 1893              	.LBB705:
ARM GAS  C:\Users\CHIPVI~1\AppData\Local\Temp\ccjCx3Ca.s 			page 72


 296:spiral2.0.cpp **** 
 1894              		.loc 17 296 9 view .LVU601
 1895              	.LBB638:
 1896              	.LBI638:
  37:../../libDaisy/src/daisy_pod.h **** 
  38:../../libDaisy/src/daisy_pod.h ****     /** Init related stuff. */
  39:../../libDaisy/src/daisy_pod.h ****     void Init(bool boost = false);
  40:../../libDaisy/src/daisy_pod.h **** 
  41:../../libDaisy/src/daisy_pod.h ****     /** Wait for a bit
  42:../../libDaisy/src/daisy_pod.h ****     \param del Time to wait in ms.
  43:../../libDaisy/src/daisy_pod.h ****     */
  44:../../libDaisy/src/daisy_pod.h ****     void DelayMs(size_t del);
  45:../../libDaisy/src/daisy_pod.h **** 
  46:../../libDaisy/src/daisy_pod.h ****     /** Starts the callback
  47:../../libDaisy/src/daisy_pod.h ****     \param cb Interleaved callback function
  48:../../libDaisy/src/daisy_pod.h ****     */
  49:../../libDaisy/src/daisy_pod.h ****     void StartAudio(AudioHandle::InterleavingAudioCallback cb);
  50:../../libDaisy/src/daisy_pod.h **** 
  51:../../libDaisy/src/daisy_pod.h ****     /** Starts the callback
  52:../../libDaisy/src/daisy_pod.h ****     \param cb multichannel callback function
  53:../../libDaisy/src/daisy_pod.h ****     */
  54:../../libDaisy/src/daisy_pod.h ****     void StartAudio(AudioHandle::AudioCallback cb);
  55:../../libDaisy/src/daisy_pod.h **** 
  56:../../libDaisy/src/daisy_pod.h ****     /**
  57:../../libDaisy/src/daisy_pod.h ****        Switch callback functions
  58:../../libDaisy/src/daisy_pod.h ****        \param cb New interleaved callback function.
  59:../../libDaisy/src/daisy_pod.h ****     */
  60:../../libDaisy/src/daisy_pod.h ****     void ChangeAudioCallback(AudioHandle::InterleavingAudioCallback cb);
  61:../../libDaisy/src/daisy_pod.h **** 
  62:../../libDaisy/src/daisy_pod.h ****     /**
  63:../../libDaisy/src/daisy_pod.h ****        Switch callback functions
  64:../../libDaisy/src/daisy_pod.h ****        \param cb New multichannel callback function.
  65:../../libDaisy/src/daisy_pod.h ****     */
  66:../../libDaisy/src/daisy_pod.h ****     void ChangeAudioCallback(AudioHandle::AudioCallback cb);
  67:../../libDaisy/src/daisy_pod.h **** 
  68:../../libDaisy/src/daisy_pod.h ****     /** Stops the audio if it is running. */
  69:../../libDaisy/src/daisy_pod.h ****     void StopAudio();
  70:../../libDaisy/src/daisy_pod.h **** 
  71:../../libDaisy/src/daisy_pod.h ****     /** Updates the Audio Sample Rate, and reinitializes.
  72:../../libDaisy/src/daisy_pod.h ****      ** Audio must be stopped for this to work.
  73:../../libDaisy/src/daisy_pod.h ****      */
  74:../../libDaisy/src/daisy_pod.h ****     void SetAudioSampleRate(SaiHandle::Config::SampleRate samplerate);
  75:../../libDaisy/src/daisy_pod.h **** 
  76:../../libDaisy/src/daisy_pod.h ****     /** Returns the audio sample rate in Hz as a floating point number.
  77:../../libDaisy/src/daisy_pod.h ****      */
  78:../../libDaisy/src/daisy_pod.h ****     float AudioSampleRate();
  79:../../libDaisy/src/daisy_pod.h **** 
  80:../../libDaisy/src/daisy_pod.h ****     /** Sets the number of samples processed per channel by the audio callback.
  81:../../libDaisy/src/daisy_pod.h ****      */
  82:../../libDaisy/src/daisy_pod.h ****     void SetAudioBlockSize(size_t blocksize);
  83:../../libDaisy/src/daisy_pod.h **** 
  84:../../libDaisy/src/daisy_pod.h ****     /** Returns the number of samples per channel in a block of audio. */
  85:../../libDaisy/src/daisy_pod.h ****     size_t AudioBlockSize();
  86:../../libDaisy/src/daisy_pod.h **** 
  87:../../libDaisy/src/daisy_pod.h ****     /** Returns the rate in Hz that the Audio callback is called */
  88:../../libDaisy/src/daisy_pod.h ****     float AudioCallbackRate();
  89:../../libDaisy/src/daisy_pod.h **** 
ARM GAS  C:\Users\CHIPVI~1\AppData\Local\Temp\ccjCx3Ca.s 			page 73


  90:../../libDaisy/src/daisy_pod.h ****     /**
  91:../../libDaisy/src/daisy_pod.h ****        Start analog to digital conversion.
  92:../../libDaisy/src/daisy_pod.h ****      */
  93:../../libDaisy/src/daisy_pod.h ****     void StartAdc();
  94:../../libDaisy/src/daisy_pod.h **** 
  95:../../libDaisy/src/daisy_pod.h ****     /** Stops Transfering data from the ADC */
  96:../../libDaisy/src/daisy_pod.h ****     void StopAdc();
  97:../../libDaisy/src/daisy_pod.h **** 
  98:../../libDaisy/src/daisy_pod.h ****     /** Call at same rate as analog reads for smooth reading.*/
  99:../../libDaisy/src/daisy_pod.h ****     void ProcessAnalogControls();
 100:../../libDaisy/src/daisy_pod.h **** 
 101:../../libDaisy/src/daisy_pod.h ****     /** Process Analog and Digital Controls */
 102:../../libDaisy/src/daisy_pod.h ****     inline void ProcessAllControls()
 1897              		.loc 1 102 17 view .LVU602
 1898              	.LBB639:
 103:../../libDaisy/src/daisy_pod.h ****     {
 104:../../libDaisy/src/daisy_pod.h ****         ProcessAnalogControls();
 1899              		.loc 1 104 9 view .LVU603
 1900              		.loc 1 104 30 is_stmt 0 view .LVU604
 1901 0248 3448     		ldr	r0, .L130
 1902 024a FFF7FEFF 		bl	_ZN5daisy8DaisyPod21ProcessAnalogControlsEv
 1903              	.LVL135:
 105:../../libDaisy/src/daisy_pod.h ****         ProcessDigitalControls();
 1904              		.loc 1 105 9 is_stmt 1 view .LVU605
 1905              		.loc 1 105 31 is_stmt 0 view .LVU606
 1906 024e 3348     		ldr	r0, .L130
 1907 0250 FFF7FEFF 		bl	_ZN5daisy8DaisyPod22ProcessDigitalControlsEv
 1908              	.LVL136:
 1909              		.loc 1 105 31 view .LVU607
 1910              	.LBE639:
 1911              	.LBE638:
 299:spiral2.0.cpp ****         {
 1912              		.loc 17 299 9 is_stmt 1 view .LVU608
 1913              	.LBB640:
 1914              	.LBI640:
  37:../../libDaisy/src/hid/encoder.h **** 
  38:../../libDaisy/src/hid/encoder.h ****     /** Returns true if the encoder was just pressed. */
  39:../../libDaisy/src/hid/encoder.h ****     inline bool RisingEdge() const { return sw_.RisingEdge(); }
 1915              		.loc 9 39 17 view .LVU609
 1916              	.LBE640:
 1917              	.LBE705:
 1918              		.loc 9 39 38 view .LVU610
 1919              	.LBB706:
 1920              	.LBB643:
 1921              	.LBB641:
 1922              	.LBI641:
  43:../../libDaisy/src/hid/switch.h **** 
  44:../../libDaisy/src/hid/switch.h ****     /** 
  45:../../libDaisy/src/hid/switch.h ****     Initializes the switch object with a given port/pin combo.
  46:../../libDaisy/src/hid/switch.h ****     \param pin port/pin object to tell the switch which hardware pin to use.
  47:../../libDaisy/src/hid/switch.h ****     \param update_rate Does nothing. Backwards compatibility until next breaking update.
  48:../../libDaisy/src/hid/switch.h ****     \param t switch type -- Default: TYPE_MOMENTARY
  49:../../libDaisy/src/hid/switch.h ****     \param pol switch polarity -- Default: POLARITY_INVERTED
  50:../../libDaisy/src/hid/switch.h ****     \param pu switch pull up/down -- Default: PULL_UP
  51:../../libDaisy/src/hid/switch.h ****     */
  52:../../libDaisy/src/hid/switch.h ****     void
  53:../../libDaisy/src/hid/switch.h ****     Init(dsy_gpio_pin pin, float update_rate, Type t, Polarity pol, Pull pu);
ARM GAS  C:\Users\CHIPVI~1\AppData\Local\Temp\ccjCx3Ca.s 			page 74


  54:../../libDaisy/src/hid/switch.h **** 
  55:../../libDaisy/src/hid/switch.h ****     /**
  56:../../libDaisy/src/hid/switch.h ****        Simplified Init.
  57:../../libDaisy/src/hid/switch.h ****        \param pin port/pin object to tell the switch which hardware pin to use.
  58:../../libDaisy/src/hid/switch.h ****        \param update_rate Left for backwards compatibility until next breaking change.
  59:../../libDaisy/src/hid/switch.h ****     */
  60:../../libDaisy/src/hid/switch.h ****     void Init(dsy_gpio_pin pin, float update_rate = 0.f);
  61:../../libDaisy/src/hid/switch.h **** 
  62:../../libDaisy/src/hid/switch.h ****     /** 
  63:../../libDaisy/src/hid/switch.h ****     Called at update_rate to debounce and handle timing for the switch.
  64:../../libDaisy/src/hid/switch.h ****     In order for events not to be missed, its important that the Edge/Pressed checks
  65:../../libDaisy/src/hid/switch.h ****     be made at the same rate as the debounce function is being called.
  66:../../libDaisy/src/hid/switch.h ****     */
  67:../../libDaisy/src/hid/switch.h ****     void Debounce();
  68:../../libDaisy/src/hid/switch.h **** 
  69:../../libDaisy/src/hid/switch.h ****     /** \return true if a button was just pressed. */
  70:../../libDaisy/src/hid/switch.h ****     inline bool RisingEdge() const { return updated_ ? state_ == 0x7f : false; }
 1923              		.loc 7 70 17 view .LVU611
 1924              	.LBB642:
 1925              		.loc 7 70 38 view .LVU612
 1926              		.loc 7 70 54 is_stmt 0 view .LVU613
 1927 0254 94F84C30 		ldrb	r3, [r4, #76]	@ zero_extendqisi2
 1928 0258 7BB1     		cbz	r3, .L73
 1929              	.LVL137:
 1930              		.loc 7 70 54 view .LVU614
 1931              	.LBE642:
 1932              	.LBE641:
 1933              	.LBE643:
 299:spiral2.0.cpp ****         {
 1934              		.loc 17 299 9 view .LVU615
 1935 025a 94F85230 		ldrb	r3, [r4, #82]	@ zero_extendqisi2
 1936 025e 7F2B     		cmp	r3, #127
 1937 0260 0BD1     		bne	.L73
 301:spiral2.0.cpp ****             if(g_level_edit)
 1938              		.loc 17 301 13 is_stmt 1 view .LVU616
 301:spiral2.0.cpp ****             if(g_level_edit)
 1939              		.loc 17 301 28 is_stmt 0 view .LVU617
 1940 0262 3978     		ldrb	r1, [r7]	@ zero_extendqisi2
 1941 0264 81F00101 		eor	r1, r1, #1
 301:spiral2.0.cpp ****             if(g_level_edit)
 1942              		.loc 17 301 26 view .LVU618
 1943 0268 3970     		strb	r1, [r7]
 302:spiral2.0.cpp ****                 editEffectsMode = false; // make modes exclusive
 1944              		.loc 17 302 13 is_stmt 1 view .LVU619
 1945 026a 0029     		cmp	r1, #0
 1946 026c 40F05981 		bne	.L74
 304:spiral2.0.cpp ****         }
 1947              		.loc 17 304 31 is_stmt 0 view .LVU620
 1948 0270 424B     		ldr	r3, .L130+96
 1949 0272 1A78     		ldrb	r2, [r3]	@ zero_extendqisi2
 1950              	.L75:
 1951              	.LVL138:
 1952              	.LBB644:
 1953              	.LBI644:
 126:../../libDaisy/src/daisy_seed.h ****     {
 1954              		.loc 10 126 17 is_stmt 1 discriminator 4 view .LVU621
 1955              	.LBB645:
ARM GAS  C:\Users\CHIPVI~1\AppData\Local\Temp\ccjCx3Ca.s 			page 75


 128:../../libDaisy/src/daisy_seed.h ****     }
 1956              		.loc 10 128 23 is_stmt 0 discriminator 4 view .LVU622
 1957 0274 4A48     		ldr	r0, .L130+132
 1958 0276 FFF7FEFF 		bl	_ZN5daisy6LoggerILNS_17LoggerDestinationE1EE9PrintLineEPKcz
 1959              	.LVL139:
 1960              	.L73:
 128:../../libDaisy/src/daisy_seed.h ****     }
 1961              		.loc 10 128 23 discriminator 4 view .LVU623
 1962              	.LBE645:
 1963              	.LBE644:
 308:spiral2.0.cpp ****         {
 1964              		.loc 17 308 9 is_stmt 1 view .LVU624
 1965              	.LBB646:
 1966 027a 3B78     		ldrb	r3, [r7]	@ zero_extendqisi2
 1967 027c 7BB1     		cbz	r3, .L76
 1968              	.LBB647:
 310:spiral2.0.cpp ****             g_level_sm += (g_target - g_level_sm) * LEVEL_SMOOTH_ALPHA;
 1969              		.loc 17 310 13 view .LVU625
 1970              	.LVL140:
 1971              	.LBB648:
 1972              	.LBI648:
 1973              		.loc 8 56 18 view .LVU626
 1974              	.LBB649:
 1975              		.loc 8 56 34 view .LVU627
 1976              		.loc 8 56 34 is_stmt 0 view .LVU628
 1977              	.LBE649:
 1978              	.LBE648:
 311:spiral2.0.cpp ****             g_level = g_level_sm;
 1979              		.loc 17 311 13 is_stmt 1 view .LVU629
 311:spiral2.0.cpp ****             g_level = g_level_sm;
 1980              		.loc 17 311 37 is_stmt 0 view .LVU630
 1981 027e 494B     		ldr	r3, .L130+136
 1982 0280 94ED257A 		vldr.32	s14, [r4, #148]
 1983 0284 D3ED007A 		vldr.32	s15, [r3]
 311:spiral2.0.cpp ****             g_level = g_level_sm;
 1984              		.loc 17 311 24 view .LVU631
 1985 0288 DFED476A 		vldr.32	s13, .L130+140
 311:spiral2.0.cpp ****             g_level = g_level_sm;
 1986              		.loc 17 311 37 view .LVU632
 1987 028c 37EE677A 		vsub.f32	s14, s14, s15
 311:spiral2.0.cpp ****             g_level = g_level_sm;
 1988              		.loc 17 311 24 view .LVU633
 1989 0290 E7EE267A 		vfma.f32	s15, s14, s13
 1990 0294 C3ED007A 		vstr.32	s15, [r3]
 312:spiral2.0.cpp ****         }
 1991              		.loc 17 312 13 is_stmt 1 view .LVU634
 312:spiral2.0.cpp ****         }
 1992              		.loc 17 312 21 is_stmt 0 view .LVU635
 1993 0298 444B     		ldr	r3, .L130+144
 1994 029a C3ED007A 		vstr.32	s15, [r3]
 1995              	.LVL141:
 1996              	.L76:
 312:spiral2.0.cpp ****         }
 1997              		.loc 17 312 21 view .LVU636
 1998              	.LBE647:
 1999              	.LBE646:
 316:spiral2.0.cpp ****         static uint32_t btn1_press_start = 0;
ARM GAS  C:\Users\CHIPVI~1\AppData\Local\Temp\ccjCx3Ca.s 			page 76


 2000              		.loc 17 316 9 is_stmt 1 view .LVU637
 317:spiral2.0.cpp ****         static bool btn1_long_handled = false;
 2001              		.loc 17 317 9 view .LVU638
 318:spiral2.0.cpp **** 
 2002              		.loc 17 318 9 view .LVU639
 320:spiral2.0.cpp ****         {
 2003              		.loc 17 320 9 view .LVU640
 2004              	.LBB650:
 2005              	.LBI650:
  71:../../libDaisy/src/hid/switch.h **** 
  72:../../libDaisy/src/hid/switch.h ****     /** \return true if the button was just released */
  73:../../libDaisy/src/hid/switch.h ****     inline bool FallingEdge() const
  74:../../libDaisy/src/hid/switch.h ****     {
  75:../../libDaisy/src/hid/switch.h ****         return updated_ ? state_ == 0x80 : false;
  76:../../libDaisy/src/hid/switch.h ****     }
  77:../../libDaisy/src/hid/switch.h **** 
  78:../../libDaisy/src/hid/switch.h ****     /** \return true if the button is held down (or if the toggle is on) */
  79:../../libDaisy/src/hid/switch.h ****     inline bool Pressed() const { return state_ == 0xff; }
 2006              		.loc 7 79 17 view .LVU641
 2007              	.LBB651:
 2008              		.loc 7 79 35 view .LVU642
 2009              		.loc 7 79 35 is_stmt 0 view .LVU643
 2010              	.LBE651:
 2011              	.LBE650:
 320:spiral2.0.cpp ****         {
 2012              		.loc 17 320 9 view .LVU644
 2013 029e 94F8BA30 		ldrb	r3, [r4, #186]	@ zero_extendqisi2
 2014 02a2 FF2B     		cmp	r3, #255
 322:spiral2.0.cpp ****             {
 2015              		.loc 17 322 13 view .LVU645
 2016 02a4 424B     		ldr	r3, .L130+148
 320:spiral2.0.cpp ****         {
 2017              		.loc 17 320 9 view .LVU646
 2018 02a6 00F09080 		beq	.L125
 341:spiral2.0.cpp ****             {
 2019              		.loc 17 341 13 is_stmt 1 view .LVU647
 2020 02aa 1B78     		ldrb	r3, [r3]	@ zero_extendqisi2
 2021 02ac 23B1     		cbz	r3, .L83
 343:spiral2.0.cpp ****                 {
 2022              		.loc 17 343 17 view .LVU648
 2023 02ae 414B     		ldr	r3, .L130+152
 2024 02b0 1B78     		ldrb	r3, [r3]	@ zero_extendqisi2
 2025 02b2 002B     		cmp	r3, #0
 2026 02b4 00F04481 		beq	.L126
 2027              	.L83:
 350:spiral2.0.cpp ****             btn1_press_start = 0;
 2028              		.loc 17 350 13 view .LVU649
 350:spiral2.0.cpp ****             btn1_press_start = 0;
 2029              		.loc 17 350 30 is_stmt 0 view .LVU650
 2030 02b8 0023     		movs	r3, #0
 2031 02ba 3D4A     		ldr	r2, .L130+148
 2032 02bc 1370     		strb	r3, [r2]
 351:spiral2.0.cpp ****             btn1_long_handled = false;
 2033              		.loc 17 351 13 is_stmt 1 view .LVU651
 351:spiral2.0.cpp ****             btn1_long_handled = false;
 2034              		.loc 17 351 30 is_stmt 0 view .LVU652
 2035 02be 3E4A     		ldr	r2, .L130+156
ARM GAS  C:\Users\CHIPVI~1\AppData\Local\Temp\ccjCx3Ca.s 			page 77


 2036 02c0 1360     		str	r3, [r2]
 352:spiral2.0.cpp ****         }
 2037              		.loc 17 352 13 is_stmt 1 view .LVU653
 352:spiral2.0.cpp ****         }
 2038              		.loc 17 352 31 is_stmt 0 view .LVU654
 2039 02c2 3C4A     		ldr	r2, .L130+152
 2040 02c4 1370     		strb	r3, [r2]
 2041              	.L79:
 356:spiral2.0.cpp ****         {
 2042              		.loc 17 356 9 is_stmt 1 view .LVU655
 2043              	.LVL142:
 2044              	.LBB652:
 2045              	.LBB653:
 2046              	.LBI653:
  70:../../libDaisy/src/hid/switch.h **** 
 2047              		.loc 7 70 17 view .LVU656
 2048              	.LBB654:
  70:../../libDaisy/src/hid/switch.h **** 
 2049              		.loc 7 70 38 view .LVU657
  70:../../libDaisy/src/hid/switch.h **** 
 2050              		.loc 7 70 54 is_stmt 0 view .LVU658
 2051 02c6 94F8C430 		ldrb	r3, [r4, #196]	@ zero_extendqisi2
 2052 02ca 23B1     		cbz	r3, .L84
 2053              	.LVL143:
  70:../../libDaisy/src/hid/switch.h **** 
 2054              		.loc 7 70 54 view .LVU659
 2055              	.LBE654:
 2056              	.LBE653:
 356:spiral2.0.cpp ****         {
 2057              		.loc 17 356 9 view .LVU660
 2058 02cc 94F8CA30 		ldrb	r3, [r4, #202]	@ zero_extendqisi2
 2059 02d0 7F2B     		cmp	r3, #127
 2060 02d2 00F0A780 		beq	.L127
 2061              	.L84:
 2062              	.LBE652:
 396:spiral2.0.cpp ****         {
 2063              		.loc 17 396 9 is_stmt 1 view .LVU661
 2064              	.LBB693:
 2065 02d6 294B     		ldr	r3, .L130+96
 2066 02d8 1B78     		ldrb	r3, [r3]	@ zero_extendqisi2
 2067 02da 002B     		cmp	r3, #0
 2068 02dc 3FF417AF 		beq	.L128
 2069              	.LBE693:
 408:spiral2.0.cpp ****         if(editEffectsMode)
 2070              		.loc 17 408 9 view .LVU662
 408:spiral2.0.cpp ****         if(editEffectsMode)
 2071              		.loc 17 408 15 is_stmt 0 view .LVU663
 2072 02e0 DBED007A 		vldr.32	s15, [fp]
 2073              	.LVL144:
 409:spiral2.0.cpp ****         {
 2074              		.loc 17 409 9 is_stmt 1 view .LVU664
 2075              	.L100:
 411:spiral2.0.cpp ****         }
 2076              		.loc 17 411 13 view .LVU665
 2077              	.LBB694:
 2078              	.LBI694:
 2079              		.loc 8 56 18 view .LVU666
ARM GAS  C:\Users\CHIPVI~1\AppData\Local\Temp\ccjCx3Ca.s 			page 78


 2080              	.LBB695:
 2081              		.loc 8 56 34 view .LVU667
 2082              		.loc 8 56 34 is_stmt 0 view .LVU668
 2083              	.LBE695:
 2084              	.LBE694:
 415:spiral2.0.cpp ****         filtCut_shared = filtCut_sm;   // publish safely
 2085              		.loc 17 415 9 is_stmt 1 view .LVU669
 415:spiral2.0.cpp ****         filtCut_shared = filtCut_sm;   // publish safely
 2086              		.loc 17 415 36 is_stmt 0 view .LVU670
 2087 02e4 94ED1D7A 		vldr.32	s14, [r4, #116]
 415:spiral2.0.cpp ****         filtCut_shared = filtCut_sm;   // publish safely
 2088              		.loc 17 415 20 view .LVU671
 2089 02e8 DFED256A 		vldr.32	s13, .L130+100
 415:spiral2.0.cpp ****         filtCut_shared = filtCut_sm;   // publish safely
 2090              		.loc 17 415 36 view .LVU672
 2091 02ec 37EE677A 		vsub.f32	s14, s14, s15
 416:spiral2.0.cpp **** 
 2092              		.loc 17 416 24 view .LVU673
 2093 02f0 244B     		ldr	r3, .L130+104
 415:spiral2.0.cpp ****         filtCut_shared = filtCut_sm;   // publish safely
 2094              		.loc 17 415 20 view .LVU674
 2095 02f2 E7EE267A 		vfma.f32	s15, s14, s13
 416:spiral2.0.cpp **** 
 2096              		.loc 17 416 24 view .LVU675
 2097 02f6 C3ED007A 		vstr.32	s15, [r3]
 419:spiral2.0.cpp ****             pod.led1.Set(0.0f, 0.0f, 1.0f); // blue
 2098              		.loc 17 419 9 view .LVU676
 2099 02fa 3B78     		ldrb	r3, [r7]	@ zero_extendqisi2
 415:spiral2.0.cpp ****         filtCut_shared = filtCut_sm;   // publish safely
 2100              		.loc 17 415 20 view .LVU677
 2101 02fc CBED007A 		vstr.32	s15, [fp]
 416:spiral2.0.cpp **** 
 2102              		.loc 17 416 9 is_stmt 1 view .LVU678
 419:spiral2.0.cpp ****             pod.led1.Set(0.0f, 0.0f, 1.0f); // blue
 2103              		.loc 17 419 9 view .LVU679
 2104 0300 002B     		cmp	r3, #0
 2105 0302 40F08580 		bne	.L97
 422:spiral2.0.cpp ****         else
 2106              		.loc 17 422 13 view .LVU680
 422:spiral2.0.cpp ****         else
 2107              		.loc 17 422 25 is_stmt 0 view .LVU681
 2108 0306 9FED0C1A 		vldr.32	s2, .L130+28
 2109 030a F7EE000A 		vmov.f32	s1, #1.0e+0
 2110 030e 1E48     		ldr	r0, .L130+108
 2111 0310 B0EE410A 		vmov.f32	s0, s2
 2112 0314 FFF7FEFF 		bl	_ZN5daisy6RgbLed3SetEfff
 2113              	.LVL145:
 422:spiral2.0.cpp ****         else
 2114              		.loc 17 422 25 view .LVU682
 2115 0318 2CE7     		b	.L94
 2116              	.L131:
 2117 031a 00BF     		.align	2
 2118              	.L130:
 2119 031c 00000000 		.word	pod
 2120 0320 00000000 		.word	.LANCHOR2
 2121 0324 00000000 		.word	.LANCHOR3
 2122 0328 00000000 		.word	.LC0
ARM GAS  C:\Users\CHIPVI~1\AppData\Local\Temp\ccjCx3Ca.s 			page 79


 2123 032c 00ED00E0 		.word	-536810240
 2124 0330 00803B47 		.word	1195081728
 2125 0334 001000E0 		.word	-536866816
 2126 0338 00000000 		.word	0
 2127 033c 00000000 		.word	.LANCHOR17
 2128 0340 00B80B00 		.word	768000
 2129 0344 00000000 		.word	bufferA_L
 2130 0348 00000000 		.word	bufferA_R
 2131 034c 00000000 		.word	bufferB_L
 2132 0350 00000000 		.word	bufferB_R
 2133 0354 00000000 		.word	.LANCHOR5
 2134 0358 00000000 		.word	.LANCHOR4
 2135 035c 00000000 		.word	.LANCHOR6
 2136 0360 00000000 		.word	_Z13AudioCallbackPKPKfPPfj
 2137 0364 58000000 		.word	.LC1
 2138 0368 00000000 		.word	.LANCHOR14
 2139 036c 00000000 		.word	.LANCHOR15
 2140 0370 00000000 		.word	.LANCHOR13
 2141 0374 00000000 		.word	.LANCHOR23
 2142 0378 20010000 		.word	.LC6
 2143 037c 00000000 		.word	.LANCHOR18
 2144 0380 8FC2753D 		.word	1031127695
 2145 0384 00000000 		.word	.LANCHOR0
 2146 0388 D8000000 		.word	pod+216
 2147 038c 00000000 		.word	.LANCHOR11
 2148 0390 00000000 		.word	.LANCHOR10
 2149 0394 00389C1C 		.word	480000000
 2150 0398 34010000 		.word	.LC7
 2151 039c 00000000 		.word	.LANCHOR12
 2152 03a0 A8000000 		.word	.LC2
 2153 03a4 00000000 		.word	.LANCHOR19
 2154 03a8 0AD7A33D 		.word	1034147594
 2155 03ac 00000000 		.word	.LANCHOR9
 2156 03b0 00000000 		.word	.LANCHOR20
 2157 03b4 00000000 		.word	.LANCHOR22
 2158 03b8 00000000 		.word	.LANCHOR21
 2159 03bc 00007A44 		.word	1148846080
 2160 03c0 00000000 		.word	.LANCHOR16
 2161              	.L88:
 408:spiral2.0.cpp ****         if(editEffectsMode)
 2162              		.loc 17 408 9 is_stmt 1 view .LVU683
 408:spiral2.0.cpp ****         if(editEffectsMode)
 2163              		.loc 17 408 15 is_stmt 0 view .LVU684
 2164 03c4 DBED007A 		vldr.32	s15, [fp]
 2165              	.LVL146:
 409:spiral2.0.cpp ****         {
 2166              		.loc 17 409 9 is_stmt 1 view .LVU685
 2167 03c8 BCE6     		b	.L92
 2168              	.LVL147:
 2169              	.L125:
 322:spiral2.0.cpp ****             {
 2170              		.loc 17 322 13 view .LVU686
 2171 03ca 1D78     		ldrb	r5, [r3]	@ zero_extendqisi2
 2172 03cc 002D     		cmp	r5, #0
 2173 03ce 00F0AD80 		beq	.L129
 330:spiral2.0.cpp ****                 {
 2174              		.loc 17 330 17 view .LVU687
ARM GAS  C:\Users\CHIPVI~1\AppData\Local\Temp\ccjCx3Ca.s 			page 80


 330:spiral2.0.cpp ****                 {
 2175              		.loc 17 330 39 is_stmt 0 view .LVU688
 2176 03d2 784B     		ldr	r3, .L132
 2177 03d4 1D78     		ldrb	r5, [r3]	@ zero_extendqisi2
 2178 03d6 002D     		cmp	r5, #0
 2179 03d8 7FF475AF 		bne	.L79
 330:spiral2.0.cpp ****                 {
 2180              		.loc 17 330 57 discriminator 1 view .LVU689
 2181 03dc FFF7FEFF 		bl	_ZN5daisy6System6GetNowEv
 2182              	.LVL148:
 330:spiral2.0.cpp ****                 {
 2183              		.loc 17 330 60 discriminator 1 view .LVU690
 2184 03e0 754B     		ldr	r3, .L132+4
 2185 03e2 1B68     		ldr	r3, [r3]
 2186 03e4 C01A     		subs	r0, r0, r3
 330:spiral2.0.cpp ****                 {
 2187              		.loc 17 330 39 discriminator 1 view .LVU691
 2188 03e6 B0F5487F 		cmp	r0, #800
 2189 03ea FFF46CAF 		bcc	.L79
 332:spiral2.0.cpp ****                     if(editEffectsMode) g_level_edit = false;
 2190              		.loc 17 332 21 is_stmt 1 view .LVU692
 332:spiral2.0.cpp ****                     if(editEffectsMode) g_level_edit = false;
 2191              		.loc 17 332 39 is_stmt 0 view .LVU693
 2192 03ee 734B     		ldr	r3, .L132+8
 2193 03f0 1978     		ldrb	r1, [r3]	@ zero_extendqisi2
 2194 03f2 81F00101 		eor	r1, r1, #1
 332:spiral2.0.cpp ****                     if(editEffectsMode) g_level_edit = false;
 2195              		.loc 17 332 37 view .LVU694
 2196 03f6 1970     		strb	r1, [r3]
 333:spiral2.0.cpp ****                     btn1_long_handled = true;
 2197              		.loc 17 333 21 is_stmt 1 view .LVU695
 2198 03f8 0029     		cmp	r1, #0
 2199 03fa 00F0D580 		beq	.L82
 333:spiral2.0.cpp ****                     btn1_long_handled = true;
 2200              		.loc 17 333 41 discriminator 1 view .LVU696
 334:spiral2.0.cpp ****                     pod.seed.PrintLine("EffectEdit=%d LevelEdit=%d", editEffectsMode ? 1 : 0, g_lev
 2201              		.loc 17 334 39 is_stmt 0 discriminator 1 view .LVU697
 2202 03fe 0121     		movs	r1, #1
 2203 0400 6C4B     		ldr	r3, .L132
 2204 0402 2A46     		mov	r2, r5
 333:spiral2.0.cpp ****                     btn1_long_handled = true;
 2205              		.loc 17 333 54 discriminator 1 view .LVU698
 2206 0404 3D70     		strb	r5, [r7]
 334:spiral2.0.cpp ****                     pod.seed.PrintLine("EffectEdit=%d LevelEdit=%d", editEffectsMode ? 1 : 0, g_lev
 2207              		.loc 17 334 21 is_stmt 1 discriminator 1 view .LVU699
 334:spiral2.0.cpp ****                     pod.seed.PrintLine("EffectEdit=%d LevelEdit=%d", editEffectsMode ? 1 : 0, g_lev
 2208              		.loc 17 334 39 is_stmt 0 discriminator 1 view .LVU700
 2209 0406 1970     		strb	r1, [r3]
 335:spiral2.0.cpp ****                 }
 2210              		.loc 17 335 21 is_stmt 1 discriminator 1 view .LVU701
 2211              	.L99:
 2212              	.LVL149:
 2213              	.LBB696:
 2214              	.LBI696:
 126:../../libDaisy/src/daisy_seed.h ****     {
 2215              		.loc 10 126 17 discriminator 4 view .LVU702
 2216              	.LBB697:
ARM GAS  C:\Users\CHIPVI~1\AppData\Local\Temp\ccjCx3Ca.s 			page 81


 128:../../libDaisy/src/daisy_seed.h ****     }
 2217              		.loc 10 128 23 is_stmt 0 discriminator 4 view .LVU703
 2218 0408 6D48     		ldr	r0, .L132+12
 2219 040a FFF7FEFF 		bl	_ZN5daisy6LoggerILNS_17LoggerDestinationE1EE9PrintLineEPKcz
 2220              	.LVL150:
 129:../../libDaisy/src/daisy_seed.h **** 
 2221              		.loc 10 129 5 discriminator 4 view .LVU704
 2222 040e 5AE7     		b	.L79
 2223              	.LVL151:
 2224              	.L97:
 129:../../libDaisy/src/daisy_seed.h **** 
 2225              		.loc 10 129 5 discriminator 4 view .LVU705
 2226              	.LBE697:
 2227              	.LBE696:
 420:spiral2.0.cpp ****         else if(editEffectsMode)
 2228              		.loc 17 420 13 is_stmt 1 view .LVU706
 420:spiral2.0.cpp ****         else if(editEffectsMode)
 2229              		.loc 17 420 25 is_stmt 0 view .LVU707
 2230 0410 DFED6C0A 		vldr.32	s1, .L132+16
 2231 0414 B7EE001A 		vmov.f32	s2, #1.0e+0
 2232 0418 6B48     		ldr	r0, .L132+20
 2233 041a B0EE600A 		vmov.f32	s0, s1
 2234 041e FFF7FEFF 		bl	_ZN5daisy6RgbLed3SetEfff
 2235              	.LVL152:
 2236 0422 A7E6     		b	.L94
 2237              	.L127:
 2238              	.LBB698:
 2239              	.LBB655:
 359:spiral2.0.cpp ****             float ms = 40.0f + vsize * (1000.0f - 40.0f);
 2240              		.loc 17 359 13 is_stmt 1 view .LVU708
 2241              	.LVL153:
 2242              	.LBB656:
 2243              	.LBI656:
 2244              		.loc 8 56 18 view .LVU709
 2245              	.LBB657:
 2246              		.loc 8 56 34 view .LVU710
 2247              		.loc 8 56 34 is_stmt 0 view .LVU711
 2248              	.LBE657:
 2249              	.LBE656:
 360:spiral2.0.cpp ****             uint32_t lengthSamples = (uint32_t)(ms * (pod.AudioSampleRate() / 1000.0f));
 2250              		.loc 17 360 13 is_stmt 1 view .LVU712
 360:spiral2.0.cpp ****             uint32_t lengthSamples = (uint32_t)(ms * (pod.AudioSampleRate() / 1000.0f));
 2251              		.loc 17 360 19 is_stmt 0 view .LVU713
 2252 0424 D4ED1D6A 		vldr.32	s13, [r4, #116]
 2253 0428 9FED687A 		vldr.32	s14, .L132+24
 2254 042c DFED687A 		vldr.32	s15, .L132+28
 361:spiral2.0.cpp ****             if(lengthSamples < 2) lengthSamples = 2;
 2255              		.loc 17 361 77 view .LVU714
 2256 0430 9FED689A 		vldr.32	s18, .L132+32
 360:spiral2.0.cpp ****             uint32_t lengthSamples = (uint32_t)(ms * (pod.AudioSampleRate() / 1000.0f));
 2257              		.loc 17 360 19 view .LVU715
 2258 0434 E6EE877A 		vfma.f32	s15, s13, s14
 361:spiral2.0.cpp ****             if(lengthSamples < 2) lengthSamples = 2;
 2259              		.loc 17 361 74 view .LVU716
 2260 0438 6748     		ldr	r0, .L132+36
 360:spiral2.0.cpp ****             uint32_t lengthSamples = (uint32_t)(ms * (pod.AudioSampleRate() / 1000.0f));
 2261              		.loc 17 360 19 view .LVU717
ARM GAS  C:\Users\CHIPVI~1\AppData\Local\Temp\ccjCx3Ca.s 			page 82


 2262 043a B0EE678A 		vmov.f32	s16, s15
 2263              	.LVL154:
 361:spiral2.0.cpp ****             if(lengthSamples < 2) lengthSamples = 2;
 2264              		.loc 17 361 13 is_stmt 1 view .LVU718
 361:spiral2.0.cpp ****             if(lengthSamples < 2) lengthSamples = 2;
 2265              		.loc 17 361 74 is_stmt 0 view .LVU719
 2266 043e FFF7FEFF 		bl	_ZN5daisy8DaisyPod15AudioSampleRateEv
 2267              	.LVL155:
 361:spiral2.0.cpp ****             if(lengthSamples < 2) lengthSamples = 2;
 2268              		.loc 17 361 77 view .LVU720
 2269 0442 C0EE097A 		vdiv.f32	s15, s0, s18
 366:spiral2.0.cpp ****             if(windowSamples < 2) windowSamples = 2;
 2270              		.loc 17 366 49 view .LVU721
 2271 0446 654B     		ldr	r3, .L132+40
 366:spiral2.0.cpp ****             if(windowSamples < 2) windowSamples = 2;
 2272              		.loc 17 366 100 view .LVU722
 2273 0448 6348     		ldr	r0, .L132+36
 366:spiral2.0.cpp ****             if(windowSamples < 2) windowSamples = 2;
 2274              		.loc 17 366 49 view .LVU723
 2275 044a 1D68     		ldr	r5, [r3]
 2276              	.LBB658:
 2277              	.LBB659:
 2278              		.loc 8 56 41 view .LVU724
 2279 044c D4ED258A 		vldr.32	s17, [r4, #148]
 2280              	.LBE659:
 2281              	.LBE658:
 361:spiral2.0.cpp ****             if(lengthSamples < 2) lengthSamples = 2;
 2282              		.loc 17 361 52 view .LVU725
 2283 0450 67EE887A 		vmul.f32	s15, s15, s16
 361:spiral2.0.cpp ****             if(lengthSamples < 2) lengthSamples = 2;
 2284              		.loc 17 361 87 view .LVU726
 2285 0454 FCEEE77A 		vcvt.u32.f32	s15, s15
 2286 0458 17EE906A 		vmov	r6, s15	@ int
 2287              	.LVL156:
 362:spiral2.0.cpp **** 
 2288              		.loc 17 362 13 is_stmt 1 view .LVU727
 2289 045c 022E     		cmp	r6, #2
 2290 045e 38BF     		it	cc
 2291 0460 0226     		movcc	r6, #2
 2292              	.LVL157:
 365:spiral2.0.cpp ****             uint32_t windowSamples = (uint32_t)((float)currentBufferLengthMs * (pod.AudioSampleRate
 2293              		.loc 17 365 13 view .LVU728
 2294              	.LBB661:
 2295              	.LBI658:
 2296              		.loc 8 56 18 view .LVU729
 2297              	.LBB660:
 2298              		.loc 8 56 34 view .LVU730
 2299              		.loc 8 56 34 is_stmt 0 view .LVU731
 2300              	.LBE660:
 2301              	.LBE661:
 366:spiral2.0.cpp ****             if(windowSamples < 2) windowSamples = 2;
 2302              		.loc 17 366 13 is_stmt 1 view .LVU732
 366:spiral2.0.cpp ****             if(windowSamples < 2) windowSamples = 2;
 2303              		.loc 17 366 100 is_stmt 0 view .LVU733
